
test_main.elf:     file format elf32-v850-rh850


Disassembly of section .vector:

00000000 <__reset>:
   0:	80 07 d0 07 	jr	7d0 <__text>
	...
  10:	80 07 d2 08 	jr	8e2 <_default_int_handler>
	...
  20:	80 07 c2 08 	jr	8e2 <_default_int_handler>
	...
  40:	80 07 a2 08 	jr	8e2 <_default_int_handler>
	...
  50:	80 07 92 08 	jr	8e2 <_default_int_handler>
	...
  60:	80 07 82 08 	jr	8e2 <_default_int_handler>
	...
  80:	80 07 62 08 	jr	8e2 <_default_int_handler>
	...
  90:	80 07 52 08 	jr	8e2 <_default_int_handler>
	...
  a0:	80 07 42 08 	jr	8e2 <_default_int_handler>
	...
  b0:	80 07 32 08 	jr	8e2 <_default_int_handler>
	...
  c0:	80 07 22 08 	jr	8e2 <_default_int_handler>
	...
  d0:	80 07 12 08 	jr	8e2 <_default_int_handler>
	...
  e0:	80 07 02 08 	jr	8e2 <_default_int_handler>
	...
  f0:	80 07 f2 07 	jr	8e2 <_default_int_handler>
	...
 100:	80 07 e2 07 	jr	8e2 <_default_int_handler>
	...
 110:	80 07 d2 07 	jr	8e2 <_default_int_handler>
	...
 120:	80 07 c2 07 	jr	8e2 <_default_int_handler>
	...
 130:	80 07 b2 07 	jr	8e2 <_default_int_handler>
	...
 140:	80 07 a2 07 	jr	8e2 <_default_int_handler>
	...
 150:	80 07 92 07 	jr	8e2 <_default_int_handler>
	...
 160:	80 07 82 07 	jr	8e2 <_default_int_handler>
	...
 170:	80 07 72 07 	jr	8e2 <_default_int_handler>
	...
 180:	80 07 62 07 	jr	8e2 <_default_int_handler>
	...
 190:	80 07 52 07 	jr	8e2 <_default_int_handler>
	...
 1a0:	80 07 42 07 	jr	8e2 <_default_int_handler>
	...
 1b0:	80 07 32 07 	jr	8e2 <_default_int_handler>
	...
 1c0:	80 07 22 07 	jr	8e2 <_default_int_handler>
	...
 1d0:	80 07 12 07 	jr	8e2 <_default_int_handler>
	...
 1e0:	80 07 f0 0f 	jr	11d0 <_interrupt>
	...
 1f0:	80 07 f2 06 	jr	8e2 <_default_int_handler>
	...
 200:	80 07 e2 06 	jr	8e2 <_default_int_handler>
	...
 210:	80 07 d2 06 	jr	8e2 <_default_int_handler>
	...
 220:	80 07 c2 06 	jr	8e2 <_default_int_handler>
	...
 230:	80 07 b2 06 	jr	8e2 <_default_int_handler>
	...
 240:	80 07 a2 06 	jr	8e2 <_default_int_handler>
	...
 250:	80 07 92 06 	jr	8e2 <_default_int_handler>
	...
 260:	80 07 82 06 	jr	8e2 <_default_int_handler>
	...
 270:	80 07 72 06 	jr	8e2 <_default_int_handler>
	...
 280:	80 07 62 06 	jr	8e2 <_default_int_handler>
	...
 290:	80 07 52 06 	jr	8e2 <_default_int_handler>
	...
 2a0:	80 07 42 06 	jr	8e2 <_default_int_handler>
	...
 2b0:	80 07 32 06 	jr	8e2 <_default_int_handler>
	...
 2c0:	80 07 22 06 	jr	8e2 <_default_int_handler>
	...
 2d0:	80 07 12 06 	jr	8e2 <_default_int_handler>
	...
 2e0:	80 07 02 06 	jr	8e2 <_default_int_handler>
	...
 2f0:	80 07 f2 05 	jr	8e2 <_default_int_handler>
	...
 300:	80 07 e2 05 	jr	8e2 <_default_int_handler>
	...
 310:	80 07 d2 05 	jr	8e2 <_default_int_handler>
	...
 320:	80 07 c2 05 	jr	8e2 <_default_int_handler>
	...
 330:	80 07 b2 05 	jr	8e2 <_default_int_handler>
	...
 340:	80 07 a2 05 	jr	8e2 <_default_int_handler>
	...
 350:	80 07 92 05 	jr	8e2 <_default_int_handler>
	...
 360:	80 07 82 05 	jr	8e2 <_default_int_handler>
	...
 370:	80 07 72 05 	jr	8e2 <_default_int_handler>
	...
 380:	80 07 62 05 	jr	8e2 <_default_int_handler>
	...
 390:	80 07 52 05 	jr	8e2 <_default_int_handler>
	...
 3a0:	80 07 42 05 	jr	8e2 <_default_int_handler>
	...
 3b0:	80 07 32 05 	jr	8e2 <_default_int_handler>
	...
 3c0:	80 07 22 05 	jr	8e2 <_default_int_handler>
	...
 3d0:	80 07 12 05 	jr	8e2 <_default_int_handler>
	...
 3e0:	80 07 02 05 	jr	8e2 <_default_int_handler>
	...
 3f0:	80 07 f2 04 	jr	8e2 <_default_int_handler>
	...
 400:	80 07 e2 04 	jr	8e2 <_default_int_handler>
	...
 410:	80 07 d2 04 	jr	8e2 <_default_int_handler>
	...
 420:	80 07 c2 04 	jr	8e2 <_default_int_handler>
	...
 430:	80 07 b2 04 	jr	8e2 <_default_int_handler>
	...
 440:	80 07 a2 04 	jr	8e2 <_default_int_handler>
	...
 450:	80 07 92 04 	jr	8e2 <_default_int_handler>
	...
 460:	80 07 82 04 	jr	8e2 <_default_int_handler>
	...
 470:	80 07 72 04 	jr	8e2 <_default_int_handler>
	...
 480:	80 07 62 04 	jr	8e2 <_default_int_handler>
	...
 490:	80 07 52 04 	jr	8e2 <_default_int_handler>
	...
 4a0:	80 07 42 04 	jr	8e2 <_default_int_handler>
	...
 4b0:	80 07 32 04 	jr	8e2 <_default_int_handler>
	...
 4c0:	80 07 22 04 	jr	8e2 <_default_int_handler>
	...
 4d0:	80 07 12 04 	jr	8e2 <_default_int_handler>
	...
 4e0:	80 07 02 04 	jr	8e2 <_default_int_handler>
	...
 4f0:	80 07 f2 03 	jr	8e2 <_default_int_handler>
	...
 500:	80 07 e2 03 	jr	8e2 <_default_int_handler>
	...
 510:	80 07 d2 03 	jr	8e2 <_default_int_handler>
	...
 520:	80 07 c2 03 	jr	8e2 <_default_int_handler>
	...
 530:	80 07 b2 03 	jr	8e2 <_default_int_handler>
	...
 540:	80 07 a2 03 	jr	8e2 <_default_int_handler>
	...
 550:	80 07 92 03 	jr	8e2 <_default_int_handler>
	...
 560:	80 07 82 03 	jr	8e2 <_default_int_handler>
	...
 570:	80 07 72 03 	jr	8e2 <_default_int_handler>
	...
 580:	80 07 62 03 	jr	8e2 <_default_int_handler>
	...
 590:	80 07 52 03 	jr	8e2 <_default_int_handler>
	...
 5a0:	80 07 42 03 	jr	8e2 <_default_int_handler>
	...
 5b0:	80 07 32 03 	jr	8e2 <_default_int_handler>
	...
 5c0:	80 07 22 03 	jr	8e2 <_default_int_handler>
	...
 5d0:	80 07 12 03 	jr	8e2 <_default_int_handler>
	...
 5e0:	80 07 02 03 	jr	8e2 <_default_int_handler>
	...
 5f0:	80 07 f2 02 	jr	8e2 <_default_int_handler>
	...
 600:	80 07 e2 02 	jr	8e2 <_default_int_handler>
	...
 610:	80 07 d2 02 	jr	8e2 <_default_int_handler>
	...
 620:	80 07 c2 02 	jr	8e2 <_default_int_handler>
	...
 630:	80 07 b2 02 	jr	8e2 <_default_int_handler>
	...
 640:	80 07 a2 02 	jr	8e2 <_default_int_handler>
	...
 650:	80 07 92 02 	jr	8e2 <_default_int_handler>
	...
 660:	80 07 82 02 	jr	8e2 <_default_int_handler>
	...
 670:	80 07 72 02 	jr	8e2 <_default_int_handler>
	...
 680:	80 07 62 02 	jr	8e2 <_default_int_handler>
	...
 690:	80 07 52 02 	jr	8e2 <_default_int_handler>
	...
 6a0:	80 07 42 02 	jr	8e2 <_default_int_handler>
	...
 6b0:	80 07 32 02 	jr	8e2 <_default_int_handler>
	...
 6c0:	80 07 22 02 	jr	8e2 <_default_int_handler>
	...
 6d0:	80 07 12 02 	jr	8e2 <_default_int_handler>
	...
 6e0:	80 07 02 02 	jr	8e2 <_default_int_handler>
	...
 6f0:	80 07 f2 01 	jr	8e2 <_default_int_handler>
	...
 700:	80 07 e2 01 	jr	8e2 <_default_int_handler>
	...
 710:	80 07 d2 01 	jr	8e2 <_default_int_handler>
	...
 720:	80 07 c2 01 	jr	8e2 <_default_int_handler>
	...
 730:	80 07 b2 01 	jr	8e2 <_default_int_handler>
	...
 740:	80 07 a2 01 	jr	8e2 <_default_int_handler>
	...
 750:	80 07 92 01 	jr	8e2 <_default_int_handler>
	...
 760:	80 07 82 01 	jr	8e2 <_default_int_handler>
	...
 770:	80 07 72 01 	jr	8e2 <_default_int_handler>
	...
 780:	80 07 62 01 	jr	8e2 <_default_int_handler>
	...
 790:	80 07 52 01 	jr	8e2 <_default_int_handler>
	...
 7a0:	80 07 42 01 	jr	8e2 <_default_int_handler>
	...
 7b0:	80 07 32 01 	jr	8e2 <_default_int_handler>
	...
 7c0:	80 07 22 01 	jr	8e2 <_default_int_handler>
	...

Disassembly of section .text:

000007d0 <__text>:
     7d0:	e0 07 60 01 	di	
     7d4:	40 1e 00 07 	movhi	1792, r0, sp
     7d8:	23 1e 10 84 	movea	-31728, sp, sp
     7dc:	03 1e 00 04 	addi	1024, sp, sp
     7e0:	80 ff 4c 0c 	jarl	142c <_bss_clear>, lp
     7e4:	80 ff 90 0c 	jarl	1474 <_data_init>, lp
     7e8:	e0 87 60 01 	ei	
     7ec:	80 ff cc 0a 	jarl	12b8 <_setup>, lp
     7f0:	e0 07 20 01 	halt	
	...

00000800 <_disable_int_all>:
     800:	5c 1a       	add	-4, sp
     802:	63 ef 01 00 	st.w	r29, 0[sp]
     806:	03 e8       	mov	sp, r29
     808:	e0 07 60 01 	di	
     80c:	1d 18       	mov	r29, sp
     80e:	23 ef 01 00 	ld.w	0[sp], r29
     812:	44 1a       	add	4, sp
     814:	7f 00       	jmp	[lp]

00000816 <_enable_int_all>:
     816:	5c 1a       	add	-4, sp
     818:	63 ef 01 00 	st.w	r29, 0[sp]
     81c:	03 e8       	mov	sp, r29
     81e:	e0 87 60 01 	ei	
     822:	1d 18       	mov	r29, sp
     824:	23 ef 01 00 	ld.w	0[sp], r29
     828:	44 1a       	add	4, sp
     82a:	7f 00       	jmp	[lp]

0000082c <_sil_wrb_mem>:
     82c:	54 1a       	add	-12, sp
     82e:	63 ef 09 00 	st.w	r29, 8[sp]
     832:	03 e8       	mov	sp, r29
     834:	7d 37 05 00 	st.w	r6, 4[r29]
     838:	07 50       	mov	r7, r10
     83a:	5d 57 00 00 	st.b	r10, 0[r29]
     83e:	3d 57 05 00 	ld.w	4[r29], r10
     842:	1d 5f 00 00 	ld.b	0[r29], r11
     846:	4a 5f 00 00 	st.b	r11, 0[r10]
     84a:	1d 18       	mov	r29, sp
     84c:	23 ef 09 00 	ld.w	8[sp], r29
     850:	4c 1a       	add	12, sp
     852:	7f 00       	jmp	[lp]

00000854 <_sil_reb_mem>:
     854:	54 1a       	add	-12, sp
     856:	63 ef 09 00 	st.w	r29, 8[sp]
     85a:	03 e8       	mov	sp, r29
     85c:	7d 37 01 00 	st.w	r6, 0[r29]
     860:	3d 57 01 00 	ld.w	0[r29], r10
     864:	0a 57 00 00 	ld.b	0[r10], r10
     868:	5d 57 07 00 	st.b	r10, 7[r29]
     86c:	bd 57 07 00 	ld.bu	7[r29], r10
     870:	1d 18       	mov	r29, sp
     872:	23 ef 09 00 	ld.w	8[sp], r29
     876:	4c 1a       	add	12, sp
     878:	7f 00       	jmp	[lp]

0000087a <_x_clear_int>:
     87a:	03 1e ec ff 	addi	-20, sp, sp
     87e:	63 ff 11 00 	st.w	lp, 16[sp]
     882:	63 e7 0d 00 	st.w	r28, 12[sp]
     886:	63 ef 09 00 	st.w	r29, 8[sp]
     88a:	03 e8       	mov	sp, r29
     88c:	7d 37 01 00 	st.w	r6, 0[r29]
     890:	3d 57 01 00 	ld.w	0[r29], r10
     894:	ca 51       	add	r10, r10
     896:	0a 56 10 f1 	addi	-3824, r10, r10
     89a:	7d 57 05 00 	st.w	r10, 4[r29]
     89e:	3d e7 05 00 	ld.w	4[r29], r28
     8a2:	3d 57 05 00 	ld.w	4[r29], r10
     8a6:	0a 30       	mov	r10, r6
     8a8:	2a 06 54 08 	mov	0x854, r10
     8ac:	00 00 
     8ae:	80 ff 04 00 	jarl	8b2 <_x_clear_int+0x38>, lp
     8b2:	44 fa       	add	4, lp
     8b4:	6a 00       	jmp	[r10]
     8b6:	8a 00       	zxb	r10
     8b8:	ca 56 7f 00 	andi	127, r10, r10
     8bc:	1c 30       	mov	r28, r6
     8be:	0a 38       	mov	r10, r7
     8c0:	2a 06 2c 08 	mov	0x82c, r10
     8c4:	00 00 
     8c6:	80 ff 04 00 	jarl	8ca <_x_clear_int+0x50>, lp
     8ca:	44 fa       	add	4, lp
     8cc:	6a 00       	jmp	[r10]
     8ce:	1d 18       	mov	r29, sp
     8d0:	23 ff 11 00 	ld.w	16[sp], lp
     8d4:	23 e7 0d 00 	ld.w	12[sp], r28
     8d8:	23 ef 09 00 	ld.w	8[sp], r29
     8dc:	03 1e 14 00 	addi	20, sp, sp
     8e0:	7f 00       	jmp	[lp]

000008e2 <_default_int_handler>:
     8e2:	5c 1a       	add	-4, sp
     8e4:	63 ef 01 00 	st.w	r29, 0[sp]
     8e8:	03 e8       	mov	sp, r29
     8ea:	00 00       	nop	
     8ec:	1d 18       	mov	r29, sp
     8ee:	23 ef 01 00 	ld.w	0[sp], r29
     8f2:	44 1a       	add	4, sp
     8f4:	7f 00       	jmp	[lp]

000008f6 <_interrupt_handler>:
     8f6:	50 1a       	add	-16, sp
     8f8:	63 ff 0d 00 	st.w	lp, 12[sp]
     8fc:	63 ef 09 00 	st.w	r29, 8[sp]
     900:	03 e8       	mov	sp, r29
     902:	7d 37 01 00 	st.w	r6, 0[r29]
     906:	3d 57 01 00 	ld.w	0[r29], r10
     90a:	ca 56 ff ff 	andi	65535, r10, r10
     90e:	0a 56 80 ff 	addi	-128, r10, r10
     912:	84 52       	shr	4, r10
     914:	7d 57 05 00 	st.w	r10, 4[r29]
     918:	3d 37 05 00 	ld.w	4[r29], r6
     91c:	2a 06 7a 08 	mov	0x87a, r10
     920:	00 00 
     922:	80 ff 04 00 	jarl	926 <_interrupt_handler+0x30>, lp
     926:	44 fa       	add	4, lp
     928:	6a 00       	jmp	[r10]
     92a:	2a 06 16 08 	mov	0x816, r10
     92e:	00 00 
     930:	80 ff 04 00 	jarl	934 <_interrupt_handler+0x3e>, lp
     934:	44 fa       	add	4, lp
     936:	6a 00       	jmp	[r10]
     938:	3d 37 05 00 	ld.w	4[r29], r6
     93c:	2a 06 06 0b 	mov	0xb06, r10
     940:	00 00 
     942:	80 ff 04 00 	jarl	946 <_interrupt_handler+0x50>, lp
     946:	44 fa       	add	4, lp
     948:	6a 00       	jmp	[r10]
     94a:	2a 06 00 08 	mov	0x800, r10
     94e:	00 00 
     950:	80 ff 04 00 	jarl	954 <_interrupt_handler+0x5e>, lp
     954:	44 fa       	add	4, lp
     956:	6a 00       	jmp	[r10]
     958:	00 00       	nop	
     95a:	1d 18       	mov	r29, sp
     95c:	23 ff 0d 00 	ld.w	12[sp], lp
     960:	23 ef 09 00 	ld.w	8[sp], r29
     964:	03 1e 10 00 	addi	16, sp, sp
     968:	7f 00       	jmp	[lp]

0000096a <_sil_wrb_mem>:
     96a:	54 1a       	add	-12, sp
     96c:	63 ef 09 00 	st.w	r29, 8[sp]
     970:	03 e8       	mov	sp, r29
     972:	7d 37 05 00 	st.w	r6, 4[r29]
     976:	07 50       	mov	r7, r10
     978:	5d 57 00 00 	st.b	r10, 0[r29]
     97c:	3d 57 05 00 	ld.w	4[r29], r10
     980:	1d 5f 00 00 	ld.b	0[r29], r11
     984:	4a 5f 00 00 	st.b	r11, 0[r10]
     988:	1d 18       	mov	r29, sp
     98a:	23 ef 09 00 	ld.w	8[sp], r29
     98e:	4c 1a       	add	12, sp
     990:	7f 00       	jmp	[lp]

00000992 <_sil_reb_mem>:
     992:	54 1a       	add	-12, sp
     994:	63 ef 09 00 	st.w	r29, 8[sp]
     998:	03 e8       	mov	sp, r29
     99a:	7d 37 01 00 	st.w	r6, 0[r29]
     99e:	3d 57 01 00 	ld.w	0[r29], r10
     9a2:	0a 57 00 00 	ld.b	0[r10], r10
     9a6:	5d 57 07 00 	st.b	r10, 7[r29]
     9aa:	bd 57 07 00 	ld.bu	7[r29], r10
     9ae:	1d 18       	mov	r29, sp
     9b0:	23 ef 09 00 	ld.w	8[sp], r29
     9b4:	4c 1a       	add	12, sp
     9b6:	7f 00       	jmp	[lp]

000009b8 <_x_enable_int>:
     9b8:	03 1e ec ff 	addi	-20, sp, sp
     9bc:	63 ff 11 00 	st.w	lp, 16[sp]
     9c0:	63 e7 0d 00 	st.w	r28, 12[sp]
     9c4:	63 ef 09 00 	st.w	r29, 8[sp]
     9c8:	03 e8       	mov	sp, r29
     9ca:	7d 37 01 00 	st.w	r6, 0[r29]
     9ce:	3d 57 01 00 	ld.w	0[r29], r10
     9d2:	ca 51       	add	r10, r10
     9d4:	0a 56 10 f1 	addi	-3824, r10, r10
     9d8:	7d 57 05 00 	st.w	r10, 4[r29]
     9dc:	3d e7 05 00 	ld.w	4[r29], r28
     9e0:	3d 57 05 00 	ld.w	4[r29], r10
     9e4:	0a 30       	mov	r10, r6
     9e6:	2a 06 92 09 	mov	0x992, r10
     9ea:	00 00 
     9ec:	80 ff 04 00 	jarl	9f0 <_x_enable_int+0x38>, lp
     9f0:	44 fa       	add	4, lp
     9f2:	6a 00       	jmp	[r10]
     9f4:	8a 00       	zxb	r10
     9f6:	ca 56 bf 00 	andi	191, r10, r10
     9fa:	1c 30       	mov	r28, r6
     9fc:	0a 38       	mov	r10, r7
     9fe:	2a 06 6a 09 	mov	0x96a, r10
     a02:	00 00 
     a04:	80 ff 04 00 	jarl	a08 <_x_enable_int+0x50>, lp
     a08:	44 fa       	add	4, lp
     a0a:	6a 00       	jmp	[r10]
     a0c:	3d 57 01 00 	ld.w	0[r29], r10
     a10:	84 52       	shr	4, r10
     a12:	2c 06 d8 75 	mov	0x6ff75d8, r12
     a16:	ff 06 
     a18:	0a 58       	mov	r10, r11
     a1a:	ca 59       	add	r10, r11
     a1c:	cc 59       	add	r12, r11
     a1e:	eb 67 01 00 	ld.hu	0[r11], r12
     a22:	3d 5f 01 00 	ld.w	0[r29], r11
     a26:	cb 5e 0f 00 	andi	15, r11, r11
     a2a:	01 6a       	mov	1, r13
     a2c:	0d 70       	mov	r13, r14
     a2e:	eb 77 c0 00 	shl	r11, r14
     a32:	0e 58       	mov	r14, r11
     a34:	cb 00       	zxh	r11
     a36:	2b 58       	not	r11, r11
     a38:	cb 00       	zxh	r11
     a3a:	4c 59       	and	r12, r11
     a3c:	cb 66 ff ff 	andi	65535, r11, r12
     a40:	2b 06 d8 75 	mov	0x6ff75d8, r11
     a44:	ff 06 
     a46:	ca 51       	add	r10, r10
     a48:	cb 51       	add	r11, r10
     a4a:	6a 67 00 00 	st.h	r12, 0[r10]
     a4e:	01 52       	mov	1, r10
     a50:	1d 18       	mov	r29, sp
     a52:	23 ff 11 00 	ld.w	16[sp], lp
     a56:	23 e7 0d 00 	ld.w	12[sp], r28
     a5a:	23 ef 09 00 	ld.w	8[sp], r29
     a5e:	03 1e 14 00 	addi	20, sp, sp
     a62:	7f 00       	jmp	[lp]

00000a64 <_disable_int_all>:
     a64:	5c 1a       	add	-4, sp
     a66:	63 ef 01 00 	st.w	r29, 0[sp]
     a6a:	03 e8       	mov	sp, r29
     a6c:	e0 07 60 01 	di	
     a70:	1d 18       	mov	r29, sp
     a72:	23 ef 01 00 	ld.w	0[sp], r29
     a76:	44 1a       	add	4, sp
     a78:	7f 00       	jmp	[lp]

00000a7a <_enable_int_all>:
     a7a:	5c 1a       	add	-4, sp
     a7c:	63 ef 01 00 	st.w	r29, 0[sp]
     a80:	03 e8       	mov	sp, r29
     a82:	e0 87 60 01 	ei	
     a86:	1d 18       	mov	r29, sp
     a88:	23 ef 01 00 	ld.w	0[sp], r29
     a8c:	44 1a       	add	4, sp
     a8e:	7f 00       	jmp	[lp]

00000a90 <_register_interrupt_handler>:
     a90:	50 1a       	add	-16, sp
     a92:	63 ff 0d 00 	st.w	lp, 12[sp]
     a96:	63 ef 09 00 	st.w	r29, 8[sp]
     a9a:	03 e8       	mov	sp, r29
     a9c:	7d 37 05 00 	st.w	r6, 4[r29]
     aa0:	7d 3f 01 00 	st.w	r7, 0[r29]
     aa4:	3d 5f 05 00 	ld.w	4[r29], r11
     aa8:	20 56 1d 00 	movea	29, r0, r10
     aac:	ea 59       	cmp	r10, r11
     aae:	bb 25       	bh	af4 <_register_interrupt_handler+0x64>
     ab0:	2a 06 64 0a 	mov	0xa64, r10
     ab4:	00 00 
     ab6:	80 ff 04 00 	jarl	aba <_register_interrupt_handler+0x2a>, lp
     aba:	44 fa       	add	4, lp
     abc:	6a 00       	jmp	[r10]
     abe:	3d 37 05 00 	ld.w	4[r29], r6
     ac2:	2a 06 b8 09 	mov	0x9b8, r10
     ac6:	00 00 
     ac8:	80 ff 04 00 	jarl	acc <_register_interrupt_handler+0x3c>, lp
     acc:	44 fa       	add	4, lp
     ace:	6a 00       	jmp	[r10]
     ad0:	2b 06 00 70 	mov	0x6ff7000, r11
     ad4:	ff 06 
     ad6:	3d 57 05 00 	ld.w	4[r29], r10
     ada:	c2 52       	shl	2, r10
     adc:	cb 51       	add	r11, r10
     ade:	3d 5f 01 00 	ld.w	0[r29], r11
     ae2:	6a 5f 01 00 	st.w	r11, 0[r10]
     ae6:	2a 06 7a 0a 	mov	0xa7a, r10
     aea:	00 00 
     aec:	80 ff 04 00 	jarl	af0 <_register_interrupt_handler+0x60>, lp
     af0:	44 fa       	add	4, lp
     af2:	6a 00       	jmp	[r10]
     af4:	00 00       	nop	
     af6:	1d 18       	mov	r29, sp
     af8:	23 ff 0d 00 	ld.w	12[sp], lp
     afc:	23 ef 09 00 	ld.w	8[sp], r29
     b00:	03 1e 10 00 	addi	16, sp, sp
     b04:	7f 00       	jmp	[lp]

00000b06 <_do_interrupt_handler>:
     b06:	54 1a       	add	-12, sp
     b08:	63 ff 09 00 	st.w	lp, 8[sp]
     b0c:	63 ef 05 00 	st.w	r29, 4[sp]
     b10:	03 e8       	mov	sp, r29
     b12:	7d 37 01 00 	st.w	r6, 0[r29]
     b16:	3d 5f 01 00 	ld.w	0[r29], r11
     b1a:	20 56 1d 00 	movea	29, r0, r10
     b1e:	ea 59       	cmp	r10, r11
     b20:	9b 1d       	bh	b52 <_do_interrupt_handler+0x4c>
     b22:	2b 06 00 70 	mov	0x6ff7000, r11
     b26:	ff 06 
     b28:	3d 57 01 00 	ld.w	0[r29], r10
     b2c:	c2 52       	shl	2, r10
     b2e:	cb 51       	add	r11, r10
     b30:	2a 57 01 00 	ld.w	0[r10], r10
     b34:	60 52       	cmp	0, r10
     b36:	e2 0d       	be	b52 <_do_interrupt_handler+0x4c>
     b38:	2b 06 00 70 	mov	0x6ff7000, r11
     b3c:	ff 06 
     b3e:	3d 57 01 00 	ld.w	0[r29], r10
     b42:	c2 52       	shl	2, r10
     b44:	cb 51       	add	r11, r10
     b46:	2a 57 01 00 	ld.w	0[r10], r10
     b4a:	80 ff 04 00 	jarl	b4e <_do_interrupt_handler+0x48>, lp
     b4e:	44 fa       	add	4, lp
     b50:	6a 00       	jmp	[r10]
     b52:	1d 18       	mov	r29, sp
     b54:	23 ff 09 00 	ld.w	8[sp], lp
     b58:	23 ef 05 00 	ld.w	4[sp], r29
     b5c:	4c 1a       	add	12, sp
     b5e:	7f 00       	jmp	[lp]

00000b60 <_sil_wrb_mem>:
     b60:	54 1a       	add	-12, sp
     b62:	63 ef 09 00 	st.w	r29, 8[sp]
     b66:	03 e8       	mov	sp, r29
     b68:	7d 37 05 00 	st.w	r6, 4[r29]
     b6c:	07 50       	mov	r7, r10
     b6e:	5d 57 00 00 	st.b	r10, 0[r29]
     b72:	3d 57 05 00 	ld.w	4[r29], r10
     b76:	1d 5f 00 00 	ld.b	0[r29], r11
     b7a:	4a 5f 00 00 	st.b	r11, 0[r10]
     b7e:	1d 18       	mov	r29, sp
     b80:	23 ef 09 00 	ld.w	8[sp], r29
     b84:	4c 1a       	add	12, sp
     b86:	7f 00       	jmp	[lp]

00000b88 <_sil_reb_mem>:
     b88:	54 1a       	add	-12, sp
     b8a:	63 ef 09 00 	st.w	r29, 8[sp]
     b8e:	03 e8       	mov	sp, r29
     b90:	7d 37 01 00 	st.w	r6, 0[r29]
     b94:	3d 57 01 00 	ld.w	0[r29], r10
     b98:	0a 57 00 00 	ld.b	0[r10], r10
     b9c:	5d 57 07 00 	st.b	r10, 7[r29]
     ba0:	bd 57 07 00 	ld.bu	7[r29], r10
     ba4:	1d 18       	mov	r29, sp
     ba6:	23 ef 09 00 	ld.w	8[sp], r29
     baa:	4c 1a       	add	12, sp
     bac:	7f 00       	jmp	[lp]

00000bae <_x_enable_int>:
     bae:	03 1e ec ff 	addi	-20, sp, sp
     bb2:	63 ff 11 00 	st.w	lp, 16[sp]
     bb6:	63 e7 0d 00 	st.w	r28, 12[sp]
     bba:	63 ef 09 00 	st.w	r29, 8[sp]
     bbe:	03 e8       	mov	sp, r29
     bc0:	7d 37 01 00 	st.w	r6, 0[r29]
     bc4:	3d 57 01 00 	ld.w	0[r29], r10
     bc8:	ca 51       	add	r10, r10
     bca:	0a 56 10 f1 	addi	-3824, r10, r10
     bce:	7d 57 05 00 	st.w	r10, 4[r29]
     bd2:	3d e7 05 00 	ld.w	4[r29], r28
     bd6:	3d 57 05 00 	ld.w	4[r29], r10
     bda:	0a 30       	mov	r10, r6
     bdc:	2a 06 88 0b 	mov	0xb88, r10
     be0:	00 00 
     be2:	80 ff 04 00 	jarl	be6 <_x_enable_int+0x38>, lp
     be6:	44 fa       	add	4, lp
     be8:	6a 00       	jmp	[r10]
     bea:	8a 00       	zxb	r10
     bec:	ca 56 bf 00 	andi	191, r10, r10
     bf0:	1c 30       	mov	r28, r6
     bf2:	0a 38       	mov	r10, r7
     bf4:	2a 06 60 0b 	mov	0xb60, r10
     bf8:	00 00 
     bfa:	80 ff 04 00 	jarl	bfe <_x_enable_int+0x50>, lp
     bfe:	44 fa       	add	4, lp
     c00:	6a 00       	jmp	[r10]
     c02:	3d 57 01 00 	ld.w	0[r29], r10
     c06:	84 52       	shr	4, r10
     c08:	2c 06 d8 75 	mov	0x6ff75d8, r12
     c0c:	ff 06 
     c0e:	0a 58       	mov	r10, r11
     c10:	ca 59       	add	r10, r11
     c12:	cc 59       	add	r12, r11
     c14:	eb 67 01 00 	ld.hu	0[r11], r12
     c18:	3d 5f 01 00 	ld.w	0[r29], r11
     c1c:	cb 5e 0f 00 	andi	15, r11, r11
     c20:	01 6a       	mov	1, r13
     c22:	0d 70       	mov	r13, r14
     c24:	eb 77 c0 00 	shl	r11, r14
     c28:	0e 58       	mov	r14, r11
     c2a:	cb 00       	zxh	r11
     c2c:	2b 58       	not	r11, r11
     c2e:	cb 00       	zxh	r11
     c30:	4c 59       	and	r12, r11
     c32:	cb 66 ff ff 	andi	65535, r11, r12
     c36:	2b 06 d8 75 	mov	0x6ff75d8, r11
     c3a:	ff 06 
     c3c:	ca 51       	add	r10, r10
     c3e:	cb 51       	add	r11, r10
     c40:	6a 67 00 00 	st.h	r12, 0[r10]
     c44:	01 52       	mov	1, r10
     c46:	1d 18       	mov	r29, sp
     c48:	23 ff 11 00 	ld.w	16[sp], lp
     c4c:	23 e7 0d 00 	ld.w	12[sp], r28
     c50:	23 ef 09 00 	ld.w	8[sp], r29
     c54:	03 1e 14 00 	addi	20, sp, sp
     c58:	7f 00       	jmp	[lp]

00000c5a <_timer_interrupt_handler>:
     c5a:	58 1a       	add	-8, sp
     c5c:	63 ff 05 00 	st.w	lp, 4[sp]
     c60:	63 ef 01 00 	st.w	r29, 0[sp]
     c64:	03 e8       	mov	sp, r29
     c66:	2a 06 50 11 	mov	0x1150, r10
     c6a:	00 00 
     c6c:	80 ff 04 00 	jarl	c70 <_timer_interrupt_handler+0x16>, lp
     c70:	44 fa       	add	4, lp
     c72:	6a 00       	jmp	[r10]
     c74:	00 00       	nop	
     c76:	1d 18       	mov	r29, sp
     c78:	23 ff 05 00 	ld.w	4[sp], lp
     c7c:	23 ef 01 00 	ld.w	0[sp], r29
     c80:	48 1a       	add	8, sp
     c82:	7f 00       	jmp	[lp]

00000c84 <_timer_init>:
     c84:	58 1a       	add	-8, sp
     c86:	63 ff 05 00 	st.w	lp, 4[sp]
     c8a:	63 ef 01 00 	st.w	r29, 0[sp]
     c8e:	03 e8       	mov	sp, r29
     c90:	20 36 16 00 	movea	22, r0, r6
     c94:	27 06 5a 0c 	mov	0xc5a, r7
     c98:	00 00 
     c9a:	2a 06 90 0a 	mov	0xa90, r10
     c9e:	00 00 
     ca0:	80 ff 04 00 	jarl	ca4 <_timer_init+0x20>, lp
     ca4:	44 fa       	add	4, lp
     ca6:	6a 00       	jmp	[r10]
     ca8:	00 32       	mov	0, r6
     caa:	2a 06 e0 0e 	mov	0xee0, r10
     cae:	00 00 
     cb0:	80 ff 04 00 	jarl	cb4 <_timer_init+0x30>, lp
     cb4:	44 fa       	add	4, lp
     cb6:	6a 00       	jmp	[r10]
     cb8:	20 36 16 00 	movea	22, r0, r6
     cbc:	2a 06 ae 0b 	mov	0xbae, r10
     cc0:	00 00 
     cc2:	80 ff 04 00 	jarl	cc6 <_timer_init+0x42>, lp
     cc6:	44 fa       	add	4, lp
     cc8:	6a 00       	jmp	[r10]
     cca:	1d 18       	mov	r29, sp
     ccc:	23 ff 05 00 	ld.w	4[sp], lp
     cd0:	23 ef 01 00 	ld.w	0[sp], r29
     cd4:	48 1a       	add	8, sp
     cd6:	7f 00       	jmp	[lp]

00000cd8 <_sil_wrb_mem>:
     cd8:	54 1a       	add	-12, sp
     cda:	63 ef 09 00 	st.w	r29, 8[sp]
     cde:	03 e8       	mov	sp, r29
     ce0:	7d 37 05 00 	st.w	r6, 4[r29]
     ce4:	07 50       	mov	r7, r10
     ce6:	5d 57 00 00 	st.b	r10, 0[r29]
     cea:	3d 57 05 00 	ld.w	4[r29], r10
     cee:	1d 5f 00 00 	ld.b	0[r29], r11
     cf2:	4a 5f 00 00 	st.b	r11, 0[r10]
     cf6:	1d 18       	mov	r29, sp
     cf8:	23 ef 09 00 	ld.w	8[sp], r29
     cfc:	4c 1a       	add	12, sp
     cfe:	7f 00       	jmp	[lp]

00000d00 <_sil_reb_mem>:
     d00:	54 1a       	add	-12, sp
     d02:	63 ef 09 00 	st.w	r29, 8[sp]
     d06:	03 e8       	mov	sp, r29
     d08:	7d 37 01 00 	st.w	r6, 0[r29]
     d0c:	3d 57 01 00 	ld.w	0[r29], r10
     d10:	0a 57 00 00 	ld.b	0[r10], r10
     d14:	5d 57 07 00 	st.b	r10, 7[r29]
     d18:	bd 57 07 00 	ld.bu	7[r29], r10
     d1c:	1d 18       	mov	r29, sp
     d1e:	23 ef 09 00 	ld.w	8[sp], r29
     d22:	4c 1a       	add	12, sp
     d24:	7f 00       	jmp	[lp]

00000d26 <_sil_reh_mem>:
     d26:	54 1a       	add	-12, sp
     d28:	63 ef 09 00 	st.w	r29, 8[sp]
     d2c:	03 e8       	mov	sp, r29
     d2e:	7d 37 01 00 	st.w	r6, 0[r29]
     d32:	3d 57 01 00 	ld.w	0[r29], r10
     d36:	2a 57 00 00 	ld.h	0[r10], r10
     d3a:	7d 57 06 00 	st.h	r10, 6[r29]
     d3e:	fd 57 07 00 	ld.hu	6[r29], r10
     d42:	1d 18       	mov	r29, sp
     d44:	23 ef 09 00 	ld.w	8[sp], r29
     d48:	4c 1a       	add	12, sp
     d4a:	7f 00       	jmp	[lp]

00000d4c <_sil_wrh_mem>:
     d4c:	54 1a       	add	-12, sp
     d4e:	63 ef 09 00 	st.w	r29, 8[sp]
     d52:	03 e8       	mov	sp, r29
     d54:	7d 37 05 00 	st.w	r6, 4[r29]
     d58:	07 50       	mov	r7, r10
     d5a:	7d 57 00 00 	st.h	r10, 0[r29]
     d5e:	3d 57 05 00 	ld.w	4[r29], r10
     d62:	3d 5f 00 00 	ld.h	0[r29], r11
     d66:	6a 5f 00 00 	st.h	r11, 0[r10]
     d6a:	1d 18       	mov	r29, sp
     d6c:	23 ef 09 00 	ld.w	8[sp], r29
     d70:	4c 1a       	add	12, sp
     d72:	7f 00       	jmp	[lp]

00000d74 <_x_clear_int>:
     d74:	03 1e ec ff 	addi	-20, sp, sp
     d78:	63 ff 11 00 	st.w	lp, 16[sp]
     d7c:	63 e7 0d 00 	st.w	r28, 12[sp]
     d80:	63 ef 09 00 	st.w	r29, 8[sp]
     d84:	03 e8       	mov	sp, r29
     d86:	7d 37 01 00 	st.w	r6, 0[r29]
     d8a:	3d 57 01 00 	ld.w	0[r29], r10
     d8e:	ca 51       	add	r10, r10
     d90:	0a 56 10 f1 	addi	-3824, r10, r10
     d94:	7d 57 05 00 	st.w	r10, 4[r29]
     d98:	3d e7 05 00 	ld.w	4[r29], r28
     d9c:	3d 57 05 00 	ld.w	4[r29], r10
     da0:	0a 30       	mov	r10, r6
     da2:	2a 06 00 0d 	mov	0xd00, r10
     da6:	00 00 
     da8:	80 ff 04 00 	jarl	dac <_x_clear_int+0x38>, lp
     dac:	44 fa       	add	4, lp
     dae:	6a 00       	jmp	[r10]
     db0:	8a 00       	zxb	r10
     db2:	ca 56 7f 00 	andi	127, r10, r10
     db6:	1c 30       	mov	r28, r6
     db8:	0a 38       	mov	r10, r7
     dba:	2a 06 d8 0c 	mov	0xcd8, r10
     dbe:	00 00 
     dc0:	80 ff 04 00 	jarl	dc4 <_x_clear_int+0x50>, lp
     dc4:	44 fa       	add	4, lp
     dc6:	6a 00       	jmp	[r10]
     dc8:	1d 18       	mov	r29, sp
     dca:	23 ff 11 00 	ld.w	16[sp], lp
     dce:	23 e7 0d 00 	ld.w	12[sp], r28
     dd2:	23 ef 09 00 	ld.w	8[sp], r29
     dd6:	03 1e 14 00 	addi	20, sp, sp
     dda:	7f 00       	jmp	[lp]

00000ddc <_HwcounterClearInterrupt>:
     ddc:	54 1a       	add	-12, sp
     dde:	63 ff 09 00 	st.w	lp, 8[sp]
     de2:	63 ef 05 00 	st.w	r29, 4[sp]
     de6:	03 e8       	mov	sp, r29
     de8:	7d 37 01 00 	st.w	r6, 0[r29]
     dec:	3d 37 01 00 	ld.w	0[r29], r6
     df0:	2a 06 74 0d 	mov	0xd74, r10
     df4:	00 00 
     df6:	80 ff 04 00 	jarl	dfa <_HwcounterClearInterrupt+0x1e>, lp
     dfa:	44 fa       	add	4, lp
     dfc:	6a 00       	jmp	[r10]
     dfe:	1d 18       	mov	r29, sp
     e00:	23 ff 09 00 	ld.w	8[sp], lp
     e04:	23 ef 05 00 	ld.w	4[sp], r29
     e08:	4c 1a       	add	12, sp
     e0a:	7f 00       	jmp	[lp]

00000e0c <_SetTimerStartTAA>:
     e0c:	50 1a       	add	-16, sp
     e0e:	63 ff 0d 00 	st.w	lp, 12[sp]
     e12:	63 e7 09 00 	st.w	r28, 8[sp]
     e16:	63 ef 05 00 	st.w	r29, 4[sp]
     e1a:	03 e8       	mov	sp, r29
     e1c:	06 50       	mov	r6, r10
     e1e:	5d 57 00 00 	st.b	r10, 0[r29]
     e22:	9d 57 01 00 	ld.bu	0[r29], r10
     e26:	c4 52       	shl	4, r10
     e28:	0a 56 90 f5 	addi	-2672, r10, r10
     e2c:	0a e0       	mov	r10, r28
     e2e:	9d 57 01 00 	ld.bu	0[r29], r10
     e32:	c4 52       	shl	4, r10
     e34:	0a 56 90 f5 	addi	-2672, r10, r10
     e38:	0a 30       	mov	r10, r6
     e3a:	2a 06 00 0d 	mov	0xd00, r10
     e3e:	00 00 
     e40:	80 ff 04 00 	jarl	e44 <_SetTimerStartTAA+0x38>, lp
     e44:	44 fa       	add	4, lp
     e46:	6a 00       	jmp	[r10]
     e48:	8a 00       	zxb	r10
     e4a:	20 5e 80 ff 	movea	-128, r0, r11
     e4e:	0b 51       	or	r11, r10
     e50:	8a 00       	zxb	r10
     e52:	1c 30       	mov	r28, r6
     e54:	0a 38       	mov	r10, r7
     e56:	2a 06 d8 0c 	mov	0xcd8, r10
     e5a:	00 00 
     e5c:	80 ff 04 00 	jarl	e60 <_SetTimerStartTAA+0x54>, lp
     e60:	44 fa       	add	4, lp
     e62:	6a 00       	jmp	[r10]
     e64:	1d 18       	mov	r29, sp
     e66:	23 ff 0d 00 	ld.w	12[sp], lp
     e6a:	23 e7 09 00 	ld.w	8[sp], r28
     e6e:	23 ef 05 00 	ld.w	4[sp], r29
     e72:	03 1e 10 00 	addi	16, sp, sp
     e76:	7f 00       	jmp	[lp]

00000e78 <_SetTimerStopTAA>:
     e78:	50 1a       	add	-16, sp
     e7a:	63 ff 0d 00 	st.w	lp, 12[sp]
     e7e:	63 e7 09 00 	st.w	r28, 8[sp]
     e82:	63 ef 05 00 	st.w	r29, 4[sp]
     e86:	03 e8       	mov	sp, r29
     e88:	06 50       	mov	r6, r10
     e8a:	5d 57 00 00 	st.b	r10, 0[r29]
     e8e:	9d 57 01 00 	ld.bu	0[r29], r10
     e92:	c4 52       	shl	4, r10
     e94:	0a 56 90 f5 	addi	-2672, r10, r10
     e98:	0a e0       	mov	r10, r28
     e9a:	9d 57 01 00 	ld.bu	0[r29], r10
     e9e:	c4 52       	shl	4, r10
     ea0:	0a 56 90 f5 	addi	-2672, r10, r10
     ea4:	0a 30       	mov	r10, r6
     ea6:	2a 06 00 0d 	mov	0xd00, r10
     eaa:	00 00 
     eac:	80 ff 04 00 	jarl	eb0 <_SetTimerStopTAA+0x38>, lp
     eb0:	44 fa       	add	4, lp
     eb2:	6a 00       	jmp	[r10]
     eb4:	8a 00       	zxb	r10
     eb6:	ca 56 7f 00 	andi	127, r10, r10
     eba:	1c 30       	mov	r28, r6
     ebc:	0a 38       	mov	r10, r7
     ebe:	2a 06 d8 0c 	mov	0xcd8, r10
     ec2:	00 00 
     ec4:	80 ff 04 00 	jarl	ec8 <_SetTimerStopTAA+0x50>, lp
     ec8:	44 fa       	add	4, lp
     eca:	6a 00       	jmp	[r10]
     ecc:	1d 18       	mov	r29, sp
     ece:	23 ff 0d 00 	ld.w	12[sp], lp
     ed2:	23 e7 09 00 	ld.w	8[sp], r28
     ed6:	23 ef 05 00 	ld.w	4[sp], r29
     eda:	03 1e 10 00 	addi	16, sp, sp
     ede:	7f 00       	jmp	[lp]

00000ee0 <_target_hrt_initialize>:
     ee0:	03 1e e4 ff 	addi	-28, sp, sp
     ee4:	63 ff 19 00 	st.w	lp, 24[sp]
     ee8:	63 ef 15 00 	st.w	r29, 20[sp]
     eec:	03 e8       	mov	sp, r29
     eee:	7d 37 01 00 	st.w	r6, 0[r29]
     ef2:	20 56 64 00 	movea	100, r0, r10
     ef6:	7d 57 11 00 	st.w	r10, 16[r29]
     efa:	2a 06 e8 75 	mov	0x6ff75e8, r10
     efe:	ff 06 
     f00:	6a 07 01 00 	st.w	r0, 0[r10]
     f04:	20 36 b0 f5 	movea	-2640, r0, r6
     f08:	2a 06 00 0d 	mov	0xd00, r10
     f0c:	00 00 
     f0e:	80 ff 04 00 	jarl	f12 <_target_hrt_initialize+0x32>, lp
     f12:	44 fa       	add	4, lp
     f14:	6a 00       	jmp	[r10]
     f16:	5d 57 0f 00 	st.b	r10, 15[r29]
     f1a:	1d 57 0f 00 	ld.b	15[r29], r10
     f1e:	18 5a       	mov	-8, r11
     f20:	4b 51       	and	r11, r10
     f22:	5d 57 0f 00 	st.b	r10, 15[r29]
     f26:	1d 57 0f 00 	ld.b	15[r29], r10
     f2a:	8a 56 05 00 	ori	5, r10, r10
     f2e:	5d 57 0f 00 	st.b	r10, 15[r29]
     f32:	bd 57 0f 00 	ld.bu	15[r29], r10
     f36:	20 36 b0 f5 	movea	-2640, r0, r6
     f3a:	0a 38       	mov	r10, r7
     f3c:	2a 06 d8 0c 	mov	0xcd8, r10
     f40:	00 00 
     f42:	80 ff 04 00 	jarl	f46 <_target_hrt_initialize+0x66>, lp
     f46:	44 fa       	add	4, lp
     f48:	6a 00       	jmp	[r10]
     f4a:	20 36 b1 f5 	movea	-2639, r0, r6
     f4e:	2a 06 00 0d 	mov	0xd00, r10
     f52:	00 00 
     f54:	80 ff 04 00 	jarl	f58 <_target_hrt_initialize+0x78>, lp
     f58:	44 fa       	add	4, lp
     f5a:	6a 00       	jmp	[r10]
     f5c:	5d 57 0f 00 	st.b	r10, 15[r29]
     f60:	5d 07 0f 00 	st.b	r0, 15[r29]
     f64:	bd 57 0f 00 	ld.bu	15[r29], r10
     f68:	20 36 b1 f5 	movea	-2639, r0, r6
     f6c:	0a 38       	mov	r10, r7
     f6e:	2a 06 d8 0c 	mov	0xcd8, r10
     f72:	00 00 
     f74:	80 ff 04 00 	jarl	f78 <_target_hrt_initialize+0x98>, lp
     f78:	44 fa       	add	4, lp
     f7a:	6a 00       	jmp	[r10]
     f7c:	20 36 c0 f5 	movea	-2624, r0, r6
     f80:	2a 06 00 0d 	mov	0xd00, r10
     f84:	00 00 
     f86:	80 ff 04 00 	jarl	f8a <_target_hrt_initialize+0xaa>, lp
     f8a:	44 fa       	add	4, lp
     f8c:	6a 00       	jmp	[r10]
     f8e:	5d 57 0f 00 	st.b	r10, 15[r29]
     f92:	1d 57 0f 00 	ld.b	15[r29], r10
     f96:	18 5a       	mov	-8, r11
     f98:	4b 51       	and	r11, r10
     f9a:	5d 57 0f 00 	st.b	r10, 15[r29]
     f9e:	1d 57 0f 00 	ld.b	15[r29], r10
     fa2:	8a 56 05 00 	ori	5, r10, r10
     fa6:	5d 57 0f 00 	st.b	r10, 15[r29]
     faa:	bd 57 0f 00 	ld.bu	15[r29], r10
     fae:	20 36 c0 f5 	movea	-2624, r0, r6
     fb2:	0a 38       	mov	r10, r7
     fb4:	2a 06 d8 0c 	mov	0xcd8, r10
     fb8:	00 00 
     fba:	80 ff 04 00 	jarl	fbe <_target_hrt_initialize+0xde>, lp
     fbe:	44 fa       	add	4, lp
     fc0:	6a 00       	jmp	[r10]
     fc2:	20 36 c1 f5 	movea	-2623, r0, r6
     fc6:	2a 06 00 0d 	mov	0xd00, r10
     fca:	00 00 
     fcc:	80 ff 04 00 	jarl	fd0 <_target_hrt_initialize+0xf0>, lp
     fd0:	44 fa       	add	4, lp
     fd2:	6a 00       	jmp	[r10]
     fd4:	5d 57 0f 00 	st.b	r10, 15[r29]
     fd8:	5d 07 0f 00 	st.b	r0, 15[r29]
     fdc:	bd 57 0f 00 	ld.bu	15[r29], r10
     fe0:	20 36 c1 f5 	movea	-2623, r0, r6
     fe4:	0a 38       	mov	r10, r7
     fe6:	2a 06 d8 0c 	mov	0xcd8, r10
     fea:	00 00 
     fec:	80 ff 04 00 	jarl	ff0 <_target_hrt_initialize+0x110>, lp
     ff0:	44 fa       	add	4, lp
     ff2:	6a 00       	jmp	[r10]
     ff4:	20 36 c6 f5 	movea	-2618, r0, r6
     ff8:	27 06 ff ff 	mov	0xffff, r7
     ffc:	00 00 
     ffe:	2a 06 4c 0d 	mov	0xd4c, r10
    1002:	00 00 
    1004:	80 ff 04 00 	jarl	1008 <_target_hrt_initialize+0x128>, lp
    1008:	44 fa       	add	4, lp
    100a:	6a 00       	jmp	[r10]
    100c:	20 36 c8 f5 	movea	-2616, r0, r6
    1010:	27 06 ff ff 	mov	0xffff, r7
    1014:	00 00 
    1016:	2a 06 4c 0d 	mov	0xd4c, r10
    101a:	00 00 
    101c:	80 ff 04 00 	jarl	1020 <_target_hrt_initialize+0x140>, lp
    1020:	44 fa       	add	4, lp
    1022:	6a 00       	jmp	[r10]
    1024:	03 32       	mov	3, r6
    1026:	2a 06 0c 0e 	mov	0xe0c, r10
    102a:	00 00 
    102c:	80 ff 04 00 	jarl	1030 <_target_hrt_initialize+0x150>, lp
    1030:	44 fa       	add	4, lp
    1032:	6a 00       	jmp	[r10]
    1034:	02 32       	mov	2, r6
    1036:	2a 06 78 0e 	mov	0xe78, r10
    103a:	00 00 
    103c:	80 ff 04 00 	jarl	1040 <_target_hrt_initialize+0x160>, lp
    1040:	44 fa       	add	4, lp
    1042:	6a 00       	jmp	[r10]
    1044:	20 36 16 00 	movea	22, r0, r6
    1048:	2a 06 dc 0d 	mov	0xddc, r10
    104c:	00 00 
    104e:	80 ff 04 00 	jarl	1052 <_target_hrt_initialize+0x172>, lp
    1052:	44 fa       	add	4, lp
    1054:	6a 00       	jmp	[r10]
    1056:	20 36 ba f5 	movea	-2630, r0, r6
    105a:	2a 06 26 0d 	mov	0xd26, r10
    105e:	00 00 
    1060:	80 ff 04 00 	jarl	1064 <_target_hrt_initialize+0x184>, lp
    1064:	44 fa       	add	4, lp
    1066:	6a 00       	jmp	[r10]
    1068:	ca 00       	zxh	r10
    106a:	7d 57 09 00 	st.w	r10, 8[r29]
    106e:	3d 5f 09 00 	ld.w	8[r29], r11
    1072:	3d 57 11 00 	ld.w	16[r29], r10
    1076:	cb 51       	add	r11, r10
    1078:	7d 57 05 00 	st.w	r10, 4[r29]
    107c:	3d 5f 05 00 	ld.w	4[r29], r11
    1080:	2a 06 ff ff 	mov	0xffff, r10
    1084:	00 00 
    1086:	ea 59       	cmp	r10, r11
    1088:	93 0d       	bnh	109a <_target_hrt_initialize+0x1ba>
    108a:	3d 57 05 00 	ld.w	4[r29], r10
    108e:	2b 06 01 00 	mov	0xffff0001, r11
    1092:	ff ff 
    1094:	cb 51       	add	r11, r10
    1096:	7d 57 05 00 	st.w	r10, 4[r29]
    109a:	3d 5f 09 00 	ld.w	8[r29], r11
    109e:	3d 57 11 00 	ld.w	16[r29], r10
    10a2:	cb 51       	add	r11, r10
    10a4:	ca 56 ff ff 	andi	65535, r10, r10
    10a8:	7d 57 05 00 	st.w	r10, 4[r29]
    10ac:	3d 57 05 00 	ld.w	4[r29], r10
    10b0:	ca 00       	zxh	r10
    10b2:	20 36 b6 f5 	movea	-2634, r0, r6
    10b6:	0a 38       	mov	r10, r7
    10b8:	2a 06 4c 0d 	mov	0xd4c, r10
    10bc:	00 00 
    10be:	80 ff 04 00 	jarl	10c2 <_target_hrt_initialize+0x1e2>, lp
    10c2:	44 fa       	add	4, lp
    10c4:	6a 00       	jmp	[r10]
    10c6:	02 32       	mov	2, r6
    10c8:	2a 06 0c 0e 	mov	0xe0c, r10
    10cc:	00 00 
    10ce:	80 ff 04 00 	jarl	10d2 <_target_hrt_initialize+0x1f2>, lp
    10d2:	44 fa       	add	4, lp
    10d4:	6a 00       	jmp	[r10]
    10d6:	00 00       	nop	
    10d8:	1d 18       	mov	r29, sp
    10da:	23 ff 19 00 	ld.w	24[sp], lp
    10de:	23 ef 15 00 	ld.w	20[sp], r29
    10e2:	03 1e 1c 00 	addi	28, sp, sp
    10e6:	7f 00       	jmp	[lp]

000010e8 <_target_hrt_terminate>:
    10e8:	54 1a       	add	-12, sp
    10ea:	63 ff 09 00 	st.w	lp, 8[sp]
    10ee:	63 ef 05 00 	st.w	r29, 4[sp]
    10f2:	03 e8       	mov	sp, r29
    10f4:	7d 37 01 00 	st.w	r6, 0[r29]
    10f8:	02 32       	mov	2, r6
    10fa:	2a 06 78 0e 	mov	0xe78, r10
    10fe:	00 00 
    1100:	80 ff 04 00 	jarl	1104 <_target_hrt_terminate+0x1c>, lp
    1104:	44 fa       	add	4, lp
    1106:	6a 00       	jmp	[r10]
    1108:	03 32       	mov	3, r6
    110a:	2a 06 78 0e 	mov	0xe78, r10
    110e:	00 00 
    1110:	80 ff 04 00 	jarl	1114 <_target_hrt_terminate+0x2c>, lp
    1114:	44 fa       	add	4, lp
    1116:	6a 00       	jmp	[r10]
    1118:	00 00       	nop	
    111a:	1d 18       	mov	r29, sp
    111c:	23 ff 09 00 	ld.w	8[sp], lp
    1120:	23 ef 05 00 	ld.w	4[sp], r29
    1124:	4c 1a       	add	12, sp
    1126:	7f 00       	jmp	[lp]

00001128 <_target_hrt_set_event>:
    1128:	58 1a       	add	-8, sp
    112a:	63 ef 05 00 	st.w	r29, 4[sp]
    112e:	03 e8       	mov	sp, r29
    1130:	7d 37 01 00 	st.w	r6, 0[r29]
    1134:	1d 18       	mov	r29, sp
    1136:	23 ef 05 00 	ld.w	4[sp], r29
    113a:	48 1a       	add	8, sp
    113c:	7f 00       	jmp	[lp]

0000113e <_target_hrt_raise_event>:
    113e:	5c 1a       	add	-4, sp
    1140:	63 ef 01 00 	st.w	r29, 0[sp]
    1144:	03 e8       	mov	sp, r29
    1146:	1d 18       	mov	r29, sp
    1148:	23 ef 01 00 	ld.w	0[sp], r29
    114c:	44 1a       	add	4, sp
    114e:	7f 00       	jmp	[lp]

00001150 <_target_hrt_handler>:
    1150:	58 1a       	add	-8, sp
    1152:	63 ff 05 00 	st.w	lp, 4[sp]
    1156:	63 ef 01 00 	st.w	r29, 0[sp]
    115a:	03 e8       	mov	sp, r29
    115c:	20 36 16 00 	movea	22, r0, r6
    1160:	2a 06 dc 0d 	mov	0xddc, r10
    1164:	00 00 
    1166:	80 ff 04 00 	jarl	116a <_target_hrt_handler+0x1a>, lp
    116a:	44 fa       	add	4, lp
    116c:	6a 00       	jmp	[r10]
    116e:	2a 06 e8 75 	mov	0x6ff75e8, r10
    1172:	ff 06 
    1174:	2a 57 01 00 	ld.w	0[r10], r10
    1178:	0a 5e 01 00 	addi	1, r10, r11
    117c:	2a 06 e8 75 	mov	0x6ff75e8, r10
    1180:	ff 06 
    1182:	6a 5f 01 00 	st.w	r11, 0[r10]
    1186:	26 06 46 1c 	mov	0x1c46, r6
    118a:	00 00 
    118c:	2a 06 d0 1d 	mov	0x1dd0, r10
    1190:	00 00 
    1192:	80 ff 04 00 	jarl	1196 <_target_hrt_handler+0x46>, lp
    1196:	44 fa       	add	4, lp
    1198:	6a 00       	jmp	[r10]
    119a:	1d 18       	mov	r29, sp
    119c:	23 ff 05 00 	ld.w	4[sp], lp
    11a0:	23 ef 01 00 	ld.w	0[sp], r29
    11a4:	48 1a       	add	8, sp
    11a6:	7f 00       	jmp	[lp]

000011a8 <_target_hrt_get_current>:
    11a8:	5c 1a       	add	-4, sp
    11aa:	63 ef 01 00 	st.w	r29, 0[sp]
    11ae:	03 e8       	mov	sp, r29
    11b0:	2a 06 e8 75 	mov	0x6ff75e8, r10
    11b4:	ff 06 
    11b6:	2a 57 01 00 	ld.w	0[r10], r10
    11ba:	1d 18       	mov	r29, sp
    11bc:	23 ef 01 00 	ld.w	0[sp], r29
    11c0:	44 1a       	add	4, sp
    11c2:	7f 00       	jmp	[lp]
	...

000011d0 <_interrupt>:
    11d0:	03 1e b0 ff 	addi	-80, sp, sp
    11d4:	63 f7 0d 00 	st.w	ep, 12[sp]
    11d8:	03 f0       	mov	sp, ep
    11da:	25 0d       	sst.w	r1, 72[ep]
    11dc:	23 35       	sst.w	r6, 68[ep]
    11de:	21 3d       	sst.w	r7, 64[ep]
    11e0:	1f 45       	sst.w	r8, 60[ep]
    11e2:	1d 4d       	sst.w	r9, 56[ep]
    11e4:	1b 55       	sst.w	r10, 52[ep]
    11e6:	19 5d       	sst.w	r11, 48[ep]
    11e8:	17 65       	sst.w	r12, 44[ep]
    11ea:	15 6d       	sst.w	r13, 40[ep]
    11ec:	13 75       	sst.w	r14, 36[ep]
    11ee:	11 7d       	sst.w	r15, 32[ep]
    11f0:	0f 85       	sst.w	r16, 28[ep]
    11f2:	0d 8d       	sst.w	r17, 24[ep]
    11f4:	0b 95       	sst.w	r18, 20[ep]
    11f6:	09 9d       	sst.w	r19, 16[ep]
    11f8:	05 fd       	sst.w	lp, 8[ep]
    11fa:	e0 5f 40 00 	stsr	eipc/vip/mpm, r11
    11fe:	03 5d       	sst.w	r11, 4[ep]
    1200:	e1 5f 40 00 	stsr	eipsw/mpc, r11
    1204:	01 5d       	sst.w	r11, 0[ep]
    1206:	e4 37 40 00 	stsr	ecr/vmecr, r6
    120a:	40 56 00 00 	movhi	0, r0, r10
    120e:	2a 56 f6 08 	movea	2294, r10, r10
    1212:	40 fe 00 00 	movhi	0, r0, lp
    1216:	3f fe 1c 12 	movea	4636, lp, lp
    121a:	6a 00       	jmp	[r10]

0000121c <end_int_handler>:
    121c:	03 f0       	mov	sp, ep
    121e:	02 5d       	sld.w	4[ep], r11
    1220:	eb 07 20 00 	ldsr	r11, eipc/vip/mpm
    1224:	00 5d       	sld.w	0[ep], r11
    1226:	eb 0f 20 00 	ldsr	r11, eipsw/mpc
    122a:	24 0d       	sld.w	72[ep], r1
    122c:	22 35       	sld.w	68[ep], r6
    122e:	20 3d       	sld.w	64[ep], r7
    1230:	1e 45       	sld.w	60[ep], r8
    1232:	1c 4d       	sld.w	56[ep], r9
    1234:	1a 55       	sld.w	52[ep], r10
    1236:	18 5d       	sld.w	48[ep], r11
    1238:	16 65       	sld.w	44[ep], r12
    123a:	14 6d       	sld.w	40[ep], r13
    123c:	12 75       	sld.w	36[ep], r14
    123e:	10 7d       	sld.w	32[ep], r15
    1240:	0e 85       	sld.w	28[ep], r16
    1242:	0c 8d       	sld.w	24[ep], r17
    1244:	0a 95       	sld.w	20[ep], r18
    1246:	08 9d       	sld.w	16[ep], r19
    1248:	04 fd       	sld.w	8[ep], lp
    124a:	1e 1e 50 00 	addi	80, ep, sp
    124e:	06 f5       	sld.w	12[ep], ep
    1250:	e0 07 40 01 	reti	
	...

00001260 <_test_print>:
    1260:	54 1a       	add	-12, sp
    1262:	63 ef 09 00 	st.w	r29, 8[sp]
    1266:	03 e8       	mov	sp, r29
    1268:	7d 37 01 00 	st.w	r6, 0[r29]
    126c:	7d 07 05 00 	st.w	r0, 4[r29]
    1270:	c5 15       	br	1298 <_test_print+0x38>
    1272:	20 56 07 fa 	movea	-1529, r0, r10
    1276:	3d 5f 05 00 	ld.w	4[r29], r11
    127a:	3d 67 01 00 	ld.w	0[r29], r12
    127e:	cc 59       	add	r12, r11
    1280:	0b 5f 00 00 	ld.b	0[r11], r11
    1284:	d8 5a       	shl	24, r11
    1286:	b8 5a       	sar	24, r11
    1288:	8b 00       	zxb	r11
    128a:	4a 5f 00 00 	st.b	r11, 0[r10]
    128e:	3d 57 05 00 	ld.w	4[r29], r10
    1292:	41 52       	add	1, r10
    1294:	7d 57 05 00 	st.w	r10, 4[r29]
    1298:	3d 57 05 00 	ld.w	4[r29], r10
    129c:	3d 5f 01 00 	ld.w	0[r29], r11
    12a0:	cb 51       	add	r11, r10
    12a2:	0a 57 00 00 	ld.b	0[r10], r10
    12a6:	d8 52       	shl	24, r10
    12a8:	b8 52       	sar	24, r10
    12aa:	60 52       	cmp	0, r10
    12ac:	ba e5       	bne	1272 <_test_print+0x12>
    12ae:	1d 18       	mov	r29, sp
    12b0:	23 ef 09 00 	ld.w	8[sp], r29
    12b4:	4c 1a       	add	12, sp
    12b6:	7f 00       	jmp	[lp]

000012b8 <_setup>:
    12b8:	58 1a       	add	-8, sp
    12ba:	63 ff 05 00 	st.w	lp, 4[sp]
    12be:	63 ef 01 00 	st.w	r29, 0[sp]
    12c2:	03 e8       	mov	sp, r29
    12c4:	2a 06 84 0c 	mov	0xc84, r10
    12c8:	00 00 
    12ca:	80 ff 04 00 	jarl	12ce <_setup+0x16>, lp
    12ce:	44 fa       	add	4, lp
    12d0:	6a 00       	jmp	[r10]
    12d2:	2a 06 2a 15 	mov	0x152a, r10
    12d6:	00 00 
    12d8:	80 ff 04 00 	jarl	12dc <_setup+0x24>, lp
    12dc:	44 fa       	add	4, lp
    12de:	6a 00       	jmp	[r10]
    12e0:	85 05       	br	12e0 <_setup+0x28>

000012e2 <_task2>:
    12e2:	50 1a       	add	-16, sp
    12e4:	63 ff 0d 00 	st.w	lp, 12[sp]
    12e8:	63 ef 09 00 	st.w	r29, 8[sp]
    12ec:	03 e8       	mov	sp, r29
    12ee:	7d 37 01 00 	st.w	r6, 0[r29]
    12f2:	7d 07 05 00 	st.w	r0, 4[r29]
    12f6:	26 06 34 2e 	mov	0x2e34, r6
    12fa:	00 00 
    12fc:	2a 06 60 12 	mov	0x1260, r10
    1300:	00 00 
    1302:	80 ff 04 00 	jarl	1306 <_task2+0x24>, lp
    1306:	44 fa       	add	4, lp
    1308:	6a 00       	jmp	[r10]
    130a:	3d 57 05 00 	ld.w	4[r29], r10
    130e:	aa 56 01 00 	xori	1, r10, r10
    1312:	7d 57 05 00 	st.w	r10, 4[r29]
    1316:	3d 57 05 00 	ld.w	4[r29], r10
    131a:	60 52       	cmp	0, r10
    131c:	c2 0d       	be	1334 <_task2+0x52>
    131e:	26 06 78 2e 	mov	0x2e78, r6
    1322:	00 00 
    1324:	2a 06 60 12 	mov	0x1260, r10
    1328:	00 00 
    132a:	80 ff 04 00 	jarl	132e <_task2+0x4c>, lp
    132e:	44 fa       	add	4, lp
    1330:	6a 00       	jmp	[r10]
    1332:	b5 0d       	br	1348 <_task2+0x66>
    1334:	26 06 80 2e 	mov	0x2e80, r6
    1338:	00 00 
    133a:	2a 06 60 12 	mov	0x1260, r10
    133e:	00 00 
    1340:	80 ff 04 00 	jarl	1344 <_task2+0x62>, lp
    1344:	44 fa       	add	4, lp
    1346:	6a 00       	jmp	[r10]
    1348:	20 36 bc 02 	movea	700, r0, r6
    134c:	2a 06 0a 1d 	mov	0x1d0a, r10
    1350:	00 00 
    1352:	80 ff 04 00 	jarl	1356 <_task2+0x74>, lp
    1356:	44 fa       	add	4, lp
    1358:	6a 00       	jmp	[r10]
    135a:	85 dd       	br	130a <_task2+0x28>

0000135c <_task1>:
    135c:	58 1a       	add	-8, sp
    135e:	63 ff 05 00 	st.w	lp, 4[sp]
    1362:	63 ef 01 00 	st.w	r29, 0[sp]
    1366:	03 e8       	mov	sp, r29
    1368:	26 06 8c 2e 	mov	0x2e8c, r6
    136c:	00 00 
    136e:	2a 06 60 12 	mov	0x1260, r10
    1372:	00 00 
    1374:	80 ff 04 00 	jarl	1378 <_task1+0x1c>, lp
    1378:	44 fa       	add	4, lp
    137a:	6a 00       	jmp	[r10]
    137c:	20 36 f4 01 	movea	500, r0, r6
    1380:	2a 06 0a 1d 	mov	0x1d0a, r10
    1384:	00 00 
    1386:	80 ff 04 00 	jarl	138a <_task1+0x2e>, lp
    138a:	44 fa       	add	4, lp
    138c:	6a 00       	jmp	[r10]
    138e:	2a 06 80 70 	mov	0x6ff7080, r10
    1392:	ff 06 
    1394:	2a 57 01 00 	ld.w	0[r10], r10
    1398:	0a 5e 01 00 	addi	1, r10, r11
    139c:	2a 06 80 70 	mov	0x6ff7080, r10
    13a0:	ff 06 
    13a2:	6a 5f 01 00 	st.w	r11, 0[r10]
    13a6:	26 06 8c 2e 	mov	0x2e8c, r6
    13aa:	00 00 
    13ac:	2a 06 60 12 	mov	0x1260, r10
    13b0:	00 00 
    13b2:	80 ff 04 00 	jarl	13b6 <_task1+0x5a>, lp
    13b6:	44 fa       	add	4, lp
    13b8:	6a 00       	jmp	[r10]
    13ba:	95 e5       	br	137c <_task1+0x20>

000013bc <_cyclic_handler>:
    13bc:	58 1a       	add	-8, sp
    13be:	63 ef 05 00 	st.w	r29, 4[sp]
    13c2:	03 e8       	mov	sp, r29
    13c4:	7d 37 01 00 	st.w	r6, 0[r29]
    13c8:	1d 18       	mov	r29, sp
    13ca:	23 ef 05 00 	ld.w	4[sp], r29
    13ce:	48 1a       	add	8, sp
    13d0:	7f 00       	jmp	[lp]

000013d2 <_alarm_handler>:
    13d2:	58 1a       	add	-8, sp
    13d4:	63 ef 05 00 	st.w	r29, 4[sp]
    13d8:	03 e8       	mov	sp, r29
    13da:	7d 37 01 00 	st.w	r6, 0[r29]
    13de:	1d 18       	mov	r29, sp
    13e0:	23 ef 05 00 	ld.w	4[sp], r29
    13e4:	48 1a       	add	8, sp
    13e6:	7f 00       	jmp	[lp]

000013e8 <_alarm_handler2>:
    13e8:	58 1a       	add	-8, sp
    13ea:	63 ef 05 00 	st.w	r29, 4[sp]
    13ee:	03 e8       	mov	sp, r29
    13f0:	7d 37 01 00 	st.w	r6, 0[r29]
    13f4:	1d 18       	mov	r29, sp
    13f6:	23 ef 05 00 	ld.w	4[sp], r29
    13fa:	48 1a       	add	8, sp
    13fc:	7f 00       	jmp	[lp]

000013fe <_main>:
    13fe:	58 1a       	add	-8, sp
    1400:	63 ff 05 00 	st.w	lp, 4[sp]
    1404:	63 ef 01 00 	st.w	r29, 0[sp]
    1408:	03 e8       	mov	sp, r29
    140a:	26 06 a4 2e 	mov	0x2ea4, r6
    140e:	00 00 
    1410:	2a 06 60 12 	mov	0x1260, r10
    1414:	00 00 
    1416:	80 ff 04 00 	jarl	141a <_main+0x1c>, lp
    141a:	44 fa       	add	4, lp
    141c:	6a 00       	jmp	[r10]
    141e:	2a 06 8c 70 	mov	0x6ff708c, r10
    1422:	ff 06 
    1424:	0a 5a       	mov	10, r11
    1426:	6a 5f 01 00 	st.w	r11, 0[r10]
    142a:	85 05       	br	142a <_main+0x2c>

0000142c <_bss_clear>:
    142c:	54 1a       	add	-12, sp
    142e:	63 ef 09 00 	st.w	r29, 8[sp]
    1432:	03 e8       	mov	sp, r29
    1434:	2a 06 00 70 	mov	0x6ff7000, r10
    1438:	ff 06 
    143a:	7d 57 05 00 	st.w	r10, 4[r29]
    143e:	2a 06 10 84 	mov	0x6ff8410, r10
    1442:	ff 06 
    1444:	7d 57 01 00 	st.w	r10, 0[r29]
    1448:	a5 0d       	br	145c <_bss_clear+0x30>
    144a:	3d 57 05 00 	ld.w	4[r29], r10
    144e:	4a 07 00 00 	st.b	r0, 0[r10]
    1452:	3d 57 05 00 	ld.w	4[r29], r10
    1456:	41 52       	add	1, r10
    1458:	7d 57 05 00 	st.w	r10, 4[r29]
    145c:	3d 5f 05 00 	ld.w	4[r29], r11
    1460:	3d 57 01 00 	ld.w	0[r29], r10
    1464:	ea 59       	cmp	r10, r11
    1466:	a1 f5       	bl	144a <_bss_clear+0x1e>
    1468:	00 00       	nop	
    146a:	1d 18       	mov	r29, sp
    146c:	23 ef 09 00 	ld.w	8[sp], r29
    1470:	4c 1a       	add	12, sp
    1472:	7f 00       	jmp	[lp]

00001474 <_data_init>:
    1474:	50 1a       	add	-16, sp
    1476:	63 ef 0d 00 	st.w	r29, 12[sp]
    147a:	03 e8       	mov	sp, r29
    147c:	2a 06 30 2f 	mov	0x2f30, r10
    1480:	00 00 
    1482:	7d 57 09 00 	st.w	r10, 8[r29]
    1486:	2a 06 30 2f 	mov	0x2f30, r10
    148a:	00 00 
    148c:	7d 57 01 00 	st.w	r10, 0[r29]
    1490:	2a 06 00 70 	mov	0x6ff7000, r10
    1494:	ff 06 
    1496:	7d 57 05 00 	st.w	r10, 4[r29]
    149a:	b5 15       	br	14c0 <_data_init+0x4c>
    149c:	3d 57 09 00 	ld.w	8[r29], r10
    14a0:	8a 5f 01 00 	ld.bu	0[r10], r11
    14a4:	3d 57 05 00 	ld.w	4[r29], r10
    14a8:	4a 5f 00 00 	st.b	r11, 0[r10]
    14ac:	3d 57 05 00 	ld.w	4[r29], r10
    14b0:	41 52       	add	1, r10
    14b2:	7d 57 05 00 	st.w	r10, 4[r29]
    14b6:	3d 57 09 00 	ld.w	8[r29], r10
    14ba:	41 52       	add	1, r10
    14bc:	7d 57 09 00 	st.w	r10, 8[r29]
    14c0:	3d 5f 09 00 	ld.w	8[r29], r11
    14c4:	3d 57 01 00 	ld.w	0[r29], r10
    14c8:	ea 59       	cmp	r10, r11
    14ca:	91 ed       	bl	149c <_data_init+0x28>
    14cc:	1d 18       	mov	r29, sp
    14ce:	23 ef 0d 00 	ld.w	12[sp], r29
    14d2:	03 1e 10 00 	addi	16, sp, sp
    14d6:	7f 00       	jmp	[lp]

000014d8 <__kernel_initialize_object>:
    14d8:	58 1a       	add	-8, sp
    14da:	63 ff 05 00 	st.w	lp, 4[sp]
    14de:	63 ef 01 00 	st.w	r29, 0[sp]
    14e2:	03 e8       	mov	sp, r29
    14e4:	2a 06 c8 2a 	mov	0x2ac8, r10
    14e8:	00 00 
    14ea:	80 ff 04 00 	jarl	14ee <__kernel_initialize_object+0x16>, lp
    14ee:	44 fa       	add	4, lp
    14f0:	6a 00       	jmp	[r10]
    14f2:	2a 06 b6 17 	mov	0x17b6, r10
    14f6:	00 00 
    14f8:	80 ff 04 00 	jarl	14fc <__kernel_initialize_object+0x24>, lp
    14fc:	44 fa       	add	4, lp
    14fe:	6a 00       	jmp	[r10]
    1500:	2a 06 6e 25 	mov	0x256e, r10
    1504:	00 00 
    1506:	80 ff 04 00 	jarl	150a <__kernel_initialize_object+0x32>, lp
    150a:	44 fa       	add	4, lp
    150c:	6a 00       	jmp	[r10]
    150e:	2a 06 72 20 	mov	0x2072, r10
    1512:	00 00 
    1514:	80 ff 04 00 	jarl	1518 <__kernel_initialize_object+0x40>, lp
    1518:	44 fa       	add	4, lp
    151a:	6a 00       	jmp	[r10]
    151c:	1d 18       	mov	r29, sp
    151e:	23 ff 05 00 	ld.w	4[sp], lp
    1522:	23 ef 01 00 	ld.w	0[sp], r29
    1526:	48 1a       	add	8, sp
    1528:	7f 00       	jmp	[lp]

0000152a <_sta_ker>:
    152a:	58 1a       	add	-8, sp
    152c:	63 ff 05 00 	st.w	lp, 4[sp]
    1530:	63 ef 01 00 	st.w	r29, 0[sp]
    1534:	03 e8       	mov	sp, r29
    1536:	2a 06 d8 14 	mov	0x14d8, r10
    153a:	00 00 
    153c:	80 ff 04 00 	jarl	1540 <_sta_ker+0x16>, lp
    1540:	44 fa       	add	4, lp
    1542:	6a 00       	jmp	[r10]
    1544:	2a 06 90 75 	mov	0x6ff7590, r10
    1548:	ff 06 
    154a:	01 5a       	mov	1, r11
    154c:	6a 5f 01 00 	st.w	r11, 0[r10]
    1550:	2a 06 fc 83 	mov	0x6ff83fc, r10
    1554:	ff 06 
    1556:	6a 07 00 00 	st.h	r0, 0[r10]
    155a:	26 06 b0 83 	mov	0x6ff83b0, r6
    155e:	ff 06 
    1560:	2a 06 84 2d 	mov	0x2d84, r10
    1564:	00 00 
    1566:	80 ff 04 00 	jarl	156a <_sta_ker+0x40>, lp
    156a:	44 fa       	add	4, lp
    156c:	6a 00       	jmp	[r10]
    156e:	2a 06 82 1a 	mov	0x1a82, r10
    1572:	00 00 
    1574:	80 ff 04 00 	jarl	1578 <_sta_ker+0x4e>, lp
    1578:	44 fa       	add	4, lp
    157a:	6a 00       	jmp	[r10]
    157c:	1d 18       	mov	r29, sp
    157e:	23 ff 05 00 	ld.w	4[sp], lp
    1582:	23 ef 01 00 	ld.w	0[sp], r29
    1586:	48 1a       	add	8, sp
    1588:	7f 00       	jmp	[lp]

0000158a <_idle_loop>:
    158a:	5c 1a       	add	-4, sp
    158c:	63 ef 01 00 	st.w	r29, 0[sp]
    1590:	03 e8       	mov	sp, r29
    1592:	e0 87 60 01 	ei	
    1596:	e0 07 60 01 	di	
    159a:	1d 18       	mov	r29, sp
    159c:	23 ef 01 00 	ld.w	0[sp], r29
    15a0:	44 1a       	add	4, sp
    15a2:	7f 00       	jmp	[lp]

000015a4 <_get_ipri_self>:
    15a4:	54 1a       	add	-12, sp
    15a6:	63 ef 09 00 	st.w	r29, 8[sp]
    15aa:	03 e8       	mov	sp, r29
    15ac:	7d 37 01 00 	st.w	r6, 0[r29]
    15b0:	3d 57 01 00 	ld.w	0[r29], r10
    15b4:	60 52       	cmp	0, r10
    15b6:	f2 05       	be	15c4 <_get_ipri_self+0x20>
    15b8:	3d 57 01 00 	ld.w	0[r29], r10
    15bc:	5f 52       	add	-1, r10
    15be:	7d 57 05 00 	st.w	r10, 4[r29]
    15c2:	85 0d       	br	15d2 <_get_ipri_self+0x2e>
    15c4:	2a 06 f8 83 	mov	0x6ff83f8, r10
    15c8:	ff 06 
    15ca:	2a 57 01 00 	ld.w	0[r10], r10
    15ce:	7d 57 05 00 	st.w	r10, 4[r29]
    15d2:	3d 57 05 00 	ld.w	4[r29], r10
    15d6:	1d 18       	mov	r29, sp
    15d8:	23 ef 09 00 	ld.w	8[sp], r29
    15dc:	4c 1a       	add	12, sp
    15de:	7f 00       	jmp	[lp]

000015e0 <_get_ipri>:
    15e0:	58 1a       	add	-8, sp
    15e2:	63 ef 05 00 	st.w	r29, 4[sp]
    15e6:	03 e8       	mov	sp, r29
    15e8:	7d 37 01 00 	st.w	r6, 0[r29]
    15ec:	3d 57 01 00 	ld.w	0[r29], r10
    15f0:	5f 52       	add	-1, r10
    15f2:	1d 18       	mov	r29, sp
    15f4:	23 ef 05 00 	ld.w	4[sp], r29
    15f8:	48 1a       	add	8, sp
    15fa:	7f 00       	jmp	[lp]

000015fc <__kernel_bitmap_search>:
    15fc:	54 1a       	add	-12, sp
    15fe:	63 ef 09 00 	st.w	r29, 8[sp]
    1602:	03 e8       	mov	sp, r29
    1604:	7d 37 01 00 	st.w	r6, 0[r29]
    1608:	7d 07 05 00 	st.w	r0, 4[r29]
    160c:	3d 57 01 00 	ld.w	0[r29], r10
    1610:	ca 56 0f 00 	andi	15, r10, r10
    1614:	60 52       	cmp	0, r10
    1616:	ba 0d       	bne	162c <__kernel_bitmap_search+0x30>
    1618:	3d 57 01 00 	ld.w	0[r29], r10
    161c:	84 52       	shr	4, r10
    161e:	7d 57 01 00 	st.w	r10, 0[r29]
    1622:	3d 57 05 00 	ld.w	4[r29], r10
    1626:	44 52       	add	4, r10
    1628:	7d 57 05 00 	st.w	r10, 4[r29]
    162c:	3d 57 01 00 	ld.w	0[r29], r10
    1630:	ca 56 0f 00 	andi	15, r10, r10
    1634:	5f 52       	add	-1, r10
    1636:	2b 06 20 2f 	mov	0x2f20, r11
    163a:	00 00 
    163c:	cb 51       	add	r11, r10
    163e:	8a 57 01 00 	ld.bu	0[r10], r10
    1642:	0a 58       	mov	r10, r11
    1644:	3d 57 05 00 	ld.w	4[r29], r10
    1648:	cb 51       	add	r11, r10
    164a:	1d 18       	mov	r29, sp
    164c:	23 ef 09 00 	ld.w	8[sp], r29
    1650:	4c 1a       	add	12, sp
    1652:	7f 00       	jmp	[lp]

00001654 <__kernel_primap_empty>:
    1654:	5c 1a       	add	-4, sp
    1656:	63 ef 01 00 	st.w	r29, 0[sp]
    165a:	03 e8       	mov	sp, r29
    165c:	2a 06 f4 83 	mov	0x6ff83f4, r10
    1660:	ff 06 
    1662:	2a 57 01 00 	ld.w	0[r10], r10
    1666:	60 52       	cmp	0, r10
    1668:	e2 57 00 00 	setf	z, r10
    166c:	8a 00       	zxb	r10
    166e:	1d 18       	mov	r29, sp
    1670:	23 ef 01 00 	ld.w	0[sp], r29
    1674:	44 1a       	add	4, sp
    1676:	7f 00       	jmp	[lp]

00001678 <__kernel_primap_test>:
    1678:	58 1a       	add	-8, sp
    167a:	63 ef 05 00 	st.w	r29, 4[sp]
    167e:	03 e8       	mov	sp, r29
    1680:	7d 37 01 00 	st.w	r6, 0[r29]
    1684:	2a 06 f4 83 	mov	0x6ff83f4, r10
    1688:	ff 06 
    168a:	2a 5f 01 00 	ld.w	0[r10], r11
    168e:	3d 57 01 00 	ld.w	0[r29], r10
    1692:	0b 60       	mov	r11, r12
    1694:	ea 67 80 00 	shr	r10, r12
    1698:	0c 50       	mov	r12, r10
    169a:	ca 56 01 00 	andi	1, r10, r10
    169e:	60 52       	cmp	0, r10
    16a0:	ea 57 00 00 	setf	nz, r10
    16a4:	8a 00       	zxb	r10
    16a6:	1d 18       	mov	r29, sp
    16a8:	23 ef 05 00 	ld.w	4[sp], r29
    16ac:	48 1a       	add	8, sp
    16ae:	7f 00       	jmp	[lp]

000016b0 <_primap_search>:
    16b0:	58 1a       	add	-8, sp
    16b2:	63 ff 05 00 	st.w	lp, 4[sp]
    16b6:	63 ef 01 00 	st.w	r29, 0[sp]
    16ba:	03 e8       	mov	sp, r29
    16bc:	2a 06 f4 83 	mov	0x6ff83f4, r10
    16c0:	ff 06 
    16c2:	2a 57 01 00 	ld.w	0[r10], r10
    16c6:	0a 30       	mov	r10, r6
    16c8:	2a 06 fc 15 	mov	0x15fc, r10
    16cc:	00 00 
    16ce:	80 ff 04 00 	jarl	16d2 <_primap_search+0x22>, lp
    16d2:	44 fa       	add	4, lp
    16d4:	6a 00       	jmp	[r10]
    16d6:	1d 18       	mov	r29, sp
    16d8:	23 ff 05 00 	ld.w	4[sp], lp
    16dc:	23 ef 01 00 	ld.w	0[sp], r29
    16e0:	48 1a       	add	8, sp
    16e2:	7f 00       	jmp	[lp]

000016e4 <__kernel_primap_set>:
    16e4:	58 1a       	add	-8, sp
    16e6:	63 ef 05 00 	st.w	r29, 4[sp]
    16ea:	03 e8       	mov	sp, r29
    16ec:	7d 37 01 00 	st.w	r6, 0[r29]
    16f0:	3d 57 01 00 	ld.w	0[r29], r10
    16f4:	01 5a       	mov	1, r11
    16f6:	ea 5f c0 00 	shl	r10, r11
    16fa:	2a 06 f4 83 	mov	0x6ff83f4, r10
    16fe:	ff 06 
    1700:	2a 57 01 00 	ld.w	0[r10], r10
    1704:	0a 59       	or	r10, r11
    1706:	2a 06 f4 83 	mov	0x6ff83f4, r10
    170a:	ff 06 
    170c:	6a 5f 01 00 	st.w	r11, 0[r10]
    1710:	1d 18       	mov	r29, sp
    1712:	23 ef 05 00 	ld.w	4[sp], r29
    1716:	48 1a       	add	8, sp
    1718:	7f 00       	jmp	[lp]

0000171a <__kernel_primap_clear>:
    171a:	58 1a       	add	-8, sp
    171c:	63 ef 05 00 	st.w	r29, 4[sp]
    1720:	03 e8       	mov	sp, r29
    1722:	7d 37 01 00 	st.w	r6, 0[r29]
    1726:	3d 57 01 00 	ld.w	0[r29], r10
    172a:	01 5a       	mov	1, r11
    172c:	0b 60       	mov	r11, r12
    172e:	ea 67 c0 00 	shl	r10, r12
    1732:	0c 50       	mov	r12, r10
    1734:	2a 58       	not	r10, r11
    1736:	2a 06 f4 83 	mov	0x6ff83f4, r10
    173a:	ff 06 
    173c:	2a 57 01 00 	ld.w	0[r10], r10
    1740:	4a 59       	and	r10, r11
    1742:	2a 06 f4 83 	mov	0x6ff83f4, r10
    1746:	ff 06 
    1748:	6a 5f 01 00 	st.w	r11, 0[r10]
    174c:	1d 18       	mov	r29, sp
    174e:	23 ef 05 00 	ld.w	4[sp], r29
    1752:	48 1a       	add	8, sp
    1754:	7f 00       	jmp	[lp]

00001756 <__kernel_search_schedtsk>:
    1756:	58 1a       	add	-8, sp
    1758:	63 ff 05 00 	st.w	lp, 4[sp]
    175c:	63 ef 01 00 	st.w	r29, 0[sp]
    1760:	03 e8       	mov	sp, r29
    1762:	2a 06 b0 16 	mov	0x16b0, r10
    1766:	00 00 
    1768:	80 ff 04 00 	jarl	176c <__kernel_search_schedtsk+0x16>, lp
    176c:	44 fa       	add	4, lp
    176e:	6a 00       	jmp	[r10]
    1770:	1d 18       	mov	r29, sp
    1772:	23 ff 05 00 	ld.w	4[sp], lp
    1776:	23 ef 01 00 	ld.w	0[sp], r29
    177a:	48 1a       	add	8, sp
    177c:	7f 00       	jmp	[lp]

0000177e <__kernel_test_dormant>:
    177e:	54 1a       	add	-12, sp
    1780:	63 ff 09 00 	st.w	lp, 8[sp]
    1784:	63 ef 05 00 	st.w	r29, 4[sp]
    1788:	03 e8       	mov	sp, r29
    178a:	7d 37 01 00 	st.w	r6, 0[r29]
    178e:	3d 37 01 00 	ld.w	0[r29], r6
    1792:	2a 06 78 16 	mov	0x1678, r10
    1796:	00 00 
    1798:	80 ff 04 00 	jarl	179c <__kernel_test_dormant+0x1e>, lp
    179c:	44 fa       	add	4, lp
    179e:	6a 00       	jmp	[r10]
    17a0:	60 52       	cmp	0, r10
    17a2:	e2 57 00 00 	setf	z, r10
    17a6:	8a 00       	zxb	r10
    17a8:	1d 18       	mov	r29, sp
    17aa:	23 ff 09 00 	ld.w	8[sp], lp
    17ae:	23 ef 05 00 	ld.w	4[sp], r29
    17b2:	4c 1a       	add	12, sp
    17b4:	7f 00       	jmp	[lp]

000017b6 <__kernel_initialize_task>:
    17b6:	54 1a       	add	-12, sp
    17b8:	63 ff 09 00 	st.w	lp, 8[sp]
    17bc:	63 ef 05 00 	st.w	r29, 4[sp]
    17c0:	03 e8       	mov	sp, r29
    17c2:	2a 06 c0 2e 	mov	0x2ec0, r10
    17c6:	00 00 
    17c8:	2a 5f 01 00 	ld.w	0[r10], r11
    17cc:	2a 06 f4 83 	mov	0x6ff83f4, r10
    17d0:	ff 06 
    17d2:	6a 5f 01 00 	st.w	r11, 0[r10]
    17d6:	2a 06 f8 83 	mov	0x6ff83f8, r10
    17da:	ff 06 
    17dc:	1f 5a       	mov	-1, r11
    17de:	6a 5f 01 00 	st.w	r11, 0[r10]
    17e2:	2a 06 f0 83 	mov	0x6ff83f0, r10
    17e6:	ff 06 
    17e8:	20 5e ff 00 	movea	255, r0, r11
    17ec:	6a 5f 01 00 	st.w	r11, 0[r10]
    17f0:	7d 07 01 00 	st.w	r0, 0[r29]
    17f4:	d5 2d       	br	184e <__kernel_initialize_task+0x98>
    17f6:	3d 57 01 00 	ld.w	0[r29], r10
    17fa:	0a 30       	mov	r10, r6
    17fc:	2a 06 78 16 	mov	0x1678, r10
    1800:	00 00 
    1802:	80 ff 04 00 	jarl	1806 <__kernel_initialize_task+0x50>, lp
    1806:	44 fa       	add	4, lp
    1808:	6a 00       	jmp	[r10]
    180a:	60 52       	cmp	0, r10
    180c:	b2 0d       	be	1822 <__kernel_initialize_task+0x6c>
    180e:	3d 57 01 00 	ld.w	0[r29], r10
    1812:	0a 30       	mov	r10, r6
    1814:	2a 06 6e 18 	mov	0x186e, r10
    1818:	00 00 
    181a:	80 ff 04 00 	jarl	181e <__kernel_initialize_task+0x68>, lp
    181e:	44 fa       	add	4, lp
    1820:	6a 00       	jmp	[r10]
    1822:	2b 06 f0 75 	mov	0x6ff75f0, r11
    1826:	ff 06 
    1828:	3d 57 01 00 	ld.w	0[r29], r10
    182c:	cb 51       	add	r11, r10
    182e:	4a 07 00 00 	st.b	r0, 0[r10]
    1832:	2b 06 00 76 	mov	0x6ff7600, r11
    1836:	ff 06 
    1838:	3d 57 01 00 	ld.w	0[r29], r10
    183c:	c2 52       	shl	2, r10
    183e:	cb 51       	add	r11, r10
    1840:	6a 07 01 00 	st.w	r0, 0[r10]
    1844:	3d 57 01 00 	ld.w	0[r29], r10
    1848:	41 52       	add	1, r10
    184a:	7d 57 01 00 	st.w	r10, 0[r29]
    184e:	3d 57 01 00 	ld.w	0[r29], r10
    1852:	61 52       	cmp	1, r10
    1854:	97 d5       	ble	17f6 <__kernel_initialize_task+0x40>
    1856:	2a 06 00 84 	mov	0x6ff8400, r10
    185a:	ff 06 
    185c:	6a 07 01 00 	st.w	r0, 0[r10]
    1860:	1d 18       	mov	r29, sp
    1862:	23 ff 09 00 	ld.w	8[sp], lp
    1866:	23 ef 05 00 	ld.w	4[sp], r29
    186a:	4c 1a       	add	12, sp
    186c:	7f 00       	jmp	[lp]

0000186e <_make_ctx>:
    186e:	03 1e e8 ff 	addi	-24, sp, sp
    1872:	63 ff 15 00 	st.w	lp, 20[sp]
    1876:	63 ef 11 00 	st.w	r29, 16[sp]
    187a:	03 e8       	mov	sp, r29
    187c:	7d 37 01 00 	st.w	r6, 0[r29]
    1880:	7d 07 09 00 	st.w	r0, 8[r29]
    1884:	3d 57 01 00 	ld.w	0[r29], r10
    1888:	7d 57 0d 00 	st.w	r10, 12[r29]
    188c:	26 06 94 75 	mov	0x6ff7594, r6
    1890:	ff 06 
    1892:	2a 06 84 2d 	mov	0x2d84, r10
    1896:	00 00 
    1898:	80 ff 04 00 	jarl	189c <_make_ctx+0x2e>, lp
    189c:	44 fa       	add	4, lp
    189e:	6a 00       	jmp	[r10]
    18a0:	60 52       	cmp	0, r10
    18a2:	ea 6d       	bne	197e <_make_ctx+0x110>
    18a4:	3d 57 0d 00 	ld.w	12[r29], r10
    18a8:	c6 52       	shl	6, r10
    18aa:	2b 06 08 76 	mov	0x6ff7608, r11
    18ae:	ff 06 
    18b0:	cb 51       	add	r11, r10
    18b2:	0a 30       	mov	r10, r6
    18b4:	2a 06 84 2d 	mov	0x2d84, r10
    18b8:	00 00 
    18ba:	80 ff 04 00 	jarl	18be <_make_ctx+0x50>, lp
    18be:	44 fa       	add	4, lp
    18c0:	6a 00       	jmp	[r10]
    18c2:	60 52       	cmp	0, r10
    18c4:	ca 0d       	bne	18dc <_make_ctx+0x6e>
    18c6:	26 06 94 75 	mov	0x6ff7594, r6
    18ca:	ff 06 
    18cc:	01 3a       	mov	1, r7
    18ce:	2a 06 c4 2d 	mov	0x2dc4, r10
    18d2:	00 00 
    18d4:	80 ff 04 00 	jarl	18d8 <_make_ctx+0x6a>, lp
    18d8:	44 fa       	add	4, lp
    18da:	6a 00       	jmp	[r10]
    18dc:	e0 07 60 01 	di	
    18e0:	2a 06 f8 83 	mov	0x6ff83f8, r10
    18e4:	ff 06 
    18e6:	2a 57 01 00 	ld.w	0[r10], r10
    18ea:	7d 57 0d 00 	st.w	r10, 12[r29]
    18ee:	3d 57 0d 00 	ld.w	12[r29], r10
    18f2:	41 52       	add	1, r10
    18f4:	ca 52       	shl	10, r10
    18f6:	2b 06 ac 7b 	mov	0x6ff7bac, r11
    18fa:	ff 06 
    18fc:	cb 51       	add	r11, r10
    18fe:	7d 57 05 00 	st.w	r10, 4[r29]
    1902:	3d 57 05 00 	ld.w	4[r29], r10
    1906:	0a 18       	mov	r10, sp
    1908:	e0 87 60 01 	ei	
    190c:	2b 06 cc 2e 	mov	0x2ecc, r11
    1910:	00 00 
    1912:	3d 57 0d 00 	ld.w	12[r29], r10
    1916:	c2 52       	shl	2, r10
    1918:	cb 51       	add	r11, r10
    191a:	2a 57 01 00 	ld.w	0[r10], r10
    191e:	2c 06 c4 2e 	mov	0x2ec4, r12
    1922:	00 00 
    1924:	3d 5f 0d 00 	ld.w	12[r29], r11
    1928:	c2 5a       	shl	2, r11
    192a:	cc 59       	add	r12, r11
    192c:	2b 5f 01 00 	ld.w	0[r11], r11
    1930:	0b 30       	mov	r11, r6
    1932:	80 ff 04 00 	jarl	1936 <_make_ctx+0xc8>, lp
    1936:	44 fa       	add	4, lp
    1938:	6a 00       	jmp	[r10]
    193a:	e0 07 60 01 	di	
    193e:	2a 06 f8 83 	mov	0x6ff83f8, r10
    1942:	ff 06 
    1944:	2a 57 01 00 	ld.w	0[r10], r10
    1948:	7d 57 0d 00 	st.w	r10, 12[r29]
    194c:	2a 06 00 84 	mov	0x6ff8400, r10
    1950:	ff 06 
    1952:	6a 07 01 00 	st.w	r0, 0[r10]
    1956:	3d 37 0d 00 	ld.w	12[r29], r6
    195a:	2a 06 1a 17 	mov	0x171a, r10
    195e:	00 00 
    1960:	80 ff 04 00 	jarl	1964 <_make_ctx+0xf6>, lp
    1964:	44 fa       	add	4, lp
    1966:	6a 00       	jmp	[r10]
    1968:	26 06 b0 83 	mov	0x6ff83b0, r6
    196c:	ff 06 
    196e:	01 3a       	mov	1, r7
    1970:	2a 06 c4 2d 	mov	0x2dc4, r10
    1974:	00 00 
    1976:	80 ff 04 00 	jarl	197a <_make_ctx+0x10c>, lp
    197a:	44 fa       	add	4, lp
    197c:	6a 00       	jmp	[r10]
    197e:	1d 18       	mov	r29, sp
    1980:	23 ff 15 00 	ld.w	20[sp], lp
    1984:	23 ef 11 00 	ld.w	16[sp], r29
    1988:	03 1e 18 00 	addi	24, sp, sp
    198c:	7f 00       	jmp	[lp]

0000198e <__kernel_make_active>:
    198e:	50 1a       	add	-16, sp
    1990:	63 ff 0d 00 	st.w	lp, 12[sp]
    1994:	63 ef 09 00 	st.w	r29, 8[sp]
    1998:	03 e8       	mov	sp, r29
    199a:	7d 37 01 00 	st.w	r6, 0[r29]
    199e:	3d 37 01 00 	ld.w	0[r29], r6
    19a2:	2a 06 e4 16 	mov	0x16e4, r10
    19a6:	00 00 
    19a8:	80 ff 04 00 	jarl	19ac <__kernel_make_active+0x1e>, lp
    19ac:	44 fa       	add	4, lp
    19ae:	6a 00       	jmp	[r10]
    19b0:	2a 06 f8 83 	mov	0x6ff83f8, r10
    19b4:	ff 06 
    19b6:	2a 57 01 00 	ld.w	0[r10], r10
    19ba:	3d 5f 01 00 	ld.w	0[r29], r11
    19be:	ea 59       	cmp	r10, r11
    19c0:	d9 0d       	bnl	19da <__kernel_make_active+0x4c>
    19c2:	2a 06 00 84 	mov	0x6ff8400, r10
    19c6:	ff 06 
    19c8:	2a 57 01 00 	ld.w	0[r10], r10
    19cc:	60 52       	cmp	0, r10
    19ce:	e2 57 00 00 	setf	z, r10
    19d2:	8a 00       	zxb	r10
    19d4:	7d 57 05 00 	st.w	r10, 4[r29]
    19d8:	b5 05       	br	19de <__kernel_make_active+0x50>
    19da:	7d 07 05 00 	st.w	r0, 4[r29]
    19de:	3d 37 01 00 	ld.w	0[r29], r6
    19e2:	2a 06 6e 18 	mov	0x186e, r10
    19e6:	00 00 
    19e8:	80 ff 04 00 	jarl	19ec <__kernel_make_active+0x5e>, lp
    19ec:	44 fa       	add	4, lp
    19ee:	6a 00       	jmp	[r10]
    19f0:	3d 57 05 00 	ld.w	4[r29], r10
    19f4:	1d 18       	mov	r29, sp
    19f6:	23 ff 0d 00 	ld.w	12[sp], lp
    19fa:	23 ef 09 00 	ld.w	8[sp], r29
    19fe:	03 1e 10 00 	addi	16, sp, sp
    1a02:	7f 00       	jmp	[lp]

00001a04 <_dispatch>:
    1a04:	54 1a       	add	-12, sp
    1a06:	63 ff 09 00 	st.w	lp, 8[sp]
    1a0a:	63 ef 05 00 	st.w	r29, 4[sp]
    1a0e:	03 e8       	mov	sp, r29
    1a10:	7d 37 01 00 	st.w	r6, 0[r29]
    1a14:	2a 06 f0 83 	mov	0x6ff83f0, r10
    1a18:	ff 06 
    1a1a:	3d 5f 01 00 	ld.w	0[r29], r11
    1a1e:	6a 5f 01 00 	st.w	r11, 0[r10]
    1a22:	3d 5f 01 00 	ld.w	0[r29], r11
    1a26:	2a 06 f8 83 	mov	0x6ff83f8, r10
    1a2a:	ff 06 
    1a2c:	6a 5f 01 00 	st.w	r11, 0[r10]
    1a30:	3d 57 01 00 	ld.w	0[r29], r10
    1a34:	c6 52       	shl	6, r10
    1a36:	2b 06 08 76 	mov	0x6ff7608, r11
    1a3a:	ff 06 
    1a3c:	cb 51       	add	r11, r10
    1a3e:	0a 30       	mov	r10, r6
    1a40:	01 3a       	mov	1, r7
    1a42:	2a 06 c4 2d 	mov	0x2dc4, r10
    1a46:	00 00 
    1a48:	80 ff 04 00 	jarl	1a4c <_dispatch+0x48>, lp
    1a4c:	44 fa       	add	4, lp
    1a4e:	6a 00       	jmp	[r10]

00001a50 <__kernel_run_task>:
    1a50:	54 1a       	add	-12, sp
    1a52:	63 ff 09 00 	st.w	lp, 8[sp]
    1a56:	63 ef 05 00 	st.w	r29, 4[sp]
    1a5a:	03 e8       	mov	sp, r29
    1a5c:	7d 37 01 00 	st.w	r6, 0[r29]
    1a60:	3d 57 01 00 	ld.w	0[r29], r10
    1a64:	0a 30       	mov	r10, r6
    1a66:	2a 06 04 1a 	mov	0x1a04, r10
    1a6a:	00 00 
    1a6c:	80 ff 04 00 	jarl	1a70 <__kernel_run_task+0x20>, lp
    1a70:	44 fa       	add	4, lp
    1a72:	6a 00       	jmp	[r10]
    1a74:	1d 18       	mov	r29, sp
    1a76:	23 ff 09 00 	ld.w	8[sp], lp
    1a7a:	23 ef 05 00 	ld.w	4[sp], r29
    1a7e:	4c 1a       	add	12, sp
    1a80:	7f 00       	jmp	[lp]

00001a82 <__kernel_dispatcher>:
    1a82:	58 1a       	add	-8, sp
    1a84:	63 ff 05 00 	st.w	lp, 4[sp]
    1a88:	63 ef 01 00 	st.w	r29, 0[sp]
    1a8c:	03 e8       	mov	sp, r29
    1a8e:	2a 06 54 16 	mov	0x1654, r10
    1a92:	00 00 
    1a94:	80 ff 04 00 	jarl	1a98 <__kernel_dispatcher+0x16>, lp
    1a98:	44 fa       	add	4, lp
    1a9a:	6a 00       	jmp	[r10]
    1a9c:	60 52       	cmp	0, r10
    1a9e:	9a 15       	bne	1ac0 <__kernel_dispatcher+0x3e>
    1aa0:	2a 06 56 17 	mov	0x1756, r10
    1aa4:	00 00 
    1aa6:	80 ff 04 00 	jarl	1aaa <__kernel_dispatcher+0x28>, lp
    1aaa:	44 fa       	add	4, lp
    1aac:	6a 00       	jmp	[r10]
    1aae:	0a 30       	mov	r10, r6
    1ab0:	2a 06 04 1a 	mov	0x1a04, r10
    1ab4:	00 00 
    1ab6:	80 ff 04 00 	jarl	1aba <__kernel_dispatcher+0x38>, lp
    1aba:	44 fa       	add	4, lp
    1abc:	6a 00       	jmp	[r10]
    1abe:	f5 0d       	br	1adc <__kernel_dispatcher+0x5a>
    1ac0:	2a 06 f0 83 	mov	0x6ff83f0, r10
    1ac4:	ff 06 
    1ac6:	20 5e ff 00 	movea	255, r0, r11
    1aca:	6a 5f 01 00 	st.w	r11, 0[r10]
    1ace:	2a 06 8a 15 	mov	0x158a, r10
    1ad2:	00 00 
    1ad4:	80 ff 04 00 	jarl	1ad8 <__kernel_dispatcher+0x56>, lp
    1ad8:	44 fa       	add	4, lp
    1ada:	6a 00       	jmp	[r10]
    1adc:	95 dd       	br	1a8e <__kernel_dispatcher+0xc>

00001ade <_wai_tsk>:
    1ade:	50 1a       	add	-16, sp
    1ae0:	63 ff 0d 00 	st.w	lp, 12[sp]
    1ae4:	63 ef 09 00 	st.w	r29, 8[sp]
    1ae8:	03 e8       	mov	sp, r29
    1aea:	00 32       	mov	0, r6
    1aec:	2a 06 a4 15 	mov	0x15a4, r10
    1af0:	00 00 
    1af2:	80 ff 04 00 	jarl	1af6 <_wai_tsk+0x18>, lp
    1af6:	44 fa       	add	4, lp
    1af8:	6a 00       	jmp	[r10]
    1afa:	7d 57 05 00 	st.w	r10, 4[r29]
    1afe:	e0 07 60 01 	di	
    1b02:	2b 06 f0 75 	mov	0x6ff75f0, r11
    1b06:	ff 06 
    1b08:	3d 57 05 00 	ld.w	4[r29], r10
    1b0c:	cb 51       	add	r11, r10
    1b0e:	01 5a       	mov	1, r11
    1b10:	4a 5f 00 00 	st.b	r11, 0[r10]
    1b14:	3d 37 05 00 	ld.w	4[r29], r6
    1b18:	2a 06 1a 17 	mov	0x171a, r10
    1b1c:	00 00 
    1b1e:	80 ff 04 00 	jarl	1b22 <_wai_tsk+0x44>, lp
    1b22:	44 fa       	add	4, lp
    1b24:	6a 00       	jmp	[r10]
    1b26:	3d 57 05 00 	ld.w	4[r29], r10
    1b2a:	c6 52       	shl	6, r10
    1b2c:	2b 06 08 76 	mov	0x6ff7608, r11
    1b30:	ff 06 
    1b32:	cb 51       	add	r11, r10
    1b34:	0a 30       	mov	r10, r6
    1b36:	2a 06 84 2d 	mov	0x2d84, r10
    1b3a:	00 00 
    1b3c:	80 ff 04 00 	jarl	1b40 <_wai_tsk+0x62>, lp
    1b40:	44 fa       	add	4, lp
    1b42:	6a 00       	jmp	[r10]
    1b44:	60 52       	cmp	0, r10
    1b46:	ca 0d       	bne	1b5e <_wai_tsk+0x80>
    1b48:	26 06 b0 83 	mov	0x6ff83b0, r6
    1b4c:	ff 06 
    1b4e:	01 3a       	mov	1, r7
    1b50:	2a 06 c4 2d 	mov	0x2dc4, r10
    1b54:	00 00 
    1b56:	80 ff 04 00 	jarl	1b5a <_wai_tsk+0x7c>, lp
    1b5a:	44 fa       	add	4, lp
    1b5c:	6a 00       	jmp	[r10]
    1b5e:	e0 87 60 01 	ei	
    1b62:	3d 57 01 00 	ld.w	0[r29], r10
    1b66:	1d 18       	mov	r29, sp
    1b68:	23 ff 0d 00 	ld.w	12[sp], lp
    1b6c:	23 ef 09 00 	ld.w	8[sp], r29
    1b70:	03 1e 10 00 	addi	16, sp, sp
    1b74:	7f 00       	jmp	[lp]

00001b76 <_go_tsk>:
    1b76:	03 1e e8 ff 	addi	-24, sp, sp
    1b7a:	63 ff 15 00 	st.w	lp, 20[sp]
    1b7e:	63 ef 11 00 	st.w	r29, 16[sp]
    1b82:	03 e8       	mov	sp, r29
    1b84:	7d 37 01 00 	st.w	r6, 0[r29]
    1b88:	3d 37 01 00 	ld.w	0[r29], r6
    1b8c:	2a 06 e0 15 	mov	0x15e0, r10
    1b90:	00 00 
    1b92:	80 ff 04 00 	jarl	1b96 <_go_tsk+0x20>, lp
    1b96:	44 fa       	add	4, lp
    1b98:	6a 00       	jmp	[r10]
    1b9a:	7d 57 0d 00 	st.w	r10, 12[r29]
    1b9e:	00 32       	mov	0, r6
    1ba0:	2a 06 a4 15 	mov	0x15a4, r10
    1ba4:	00 00 
    1ba6:	80 ff 04 00 	jarl	1baa <_go_tsk+0x34>, lp
    1baa:	44 fa       	add	4, lp
    1bac:	6a 00       	jmp	[r10]
    1bae:	7d 57 09 00 	st.w	r10, 8[r29]
    1bb2:	e0 07 60 01 	di	
    1bb6:	2b 06 f0 75 	mov	0x6ff75f0, r11
    1bba:	ff 06 
    1bbc:	3d 57 0d 00 	ld.w	12[r29], r10
    1bc0:	cb 51       	add	r11, r10
    1bc2:	8a 57 01 00 	ld.bu	0[r10], r10
    1bc6:	60 52       	cmp	0, r10
    1bc8:	ea 05       	bne	1bd4 <_go_tsk+0x5e>
    1bca:	e0 87 60 01 	ei	
    1bce:	20 56 d7 ff 	movea	-41, r0, r10
    1bd2:	a5 35       	br	1c36 <_go_tsk+0xc0>
    1bd4:	2b 06 f0 75 	mov	0x6ff75f0, r11
    1bd8:	ff 06 
    1bda:	3d 57 0d 00 	ld.w	12[r29], r10
    1bde:	cb 51       	add	r11, r10
    1be0:	4a 07 00 00 	st.b	r0, 0[r10]
    1be4:	3d 37 0d 00 	ld.w	12[r29], r6
    1be8:	2a 06 e4 16 	mov	0x16e4, r10
    1bec:	00 00 
    1bee:	80 ff 04 00 	jarl	1bf2 <_go_tsk+0x7c>, lp
    1bf2:	44 fa       	add	4, lp
    1bf4:	6a 00       	jmp	[r10]
    1bf6:	3d 57 09 00 	ld.w	8[r29], r10
    1bfa:	c6 52       	shl	6, r10
    1bfc:	2b 06 08 76 	mov	0x6ff7608, r11
    1c00:	ff 06 
    1c02:	cb 51       	add	r11, r10
    1c04:	0a 30       	mov	r10, r6
    1c06:	2a 06 84 2d 	mov	0x2d84, r10
    1c0a:	00 00 
    1c0c:	80 ff 04 00 	jarl	1c10 <_go_tsk+0x9a>, lp
    1c10:	44 fa       	add	4, lp
    1c12:	6a 00       	jmp	[r10]
    1c14:	60 52       	cmp	0, r10
    1c16:	ca 0d       	bne	1c2e <_go_tsk+0xb8>
    1c18:	26 06 b0 83 	mov	0x6ff83b0, r6
    1c1c:	ff 06 
    1c1e:	01 3a       	mov	1, r7
    1c20:	2a 06 c4 2d 	mov	0x2dc4, r10
    1c24:	00 00 
    1c26:	80 ff 04 00 	jarl	1c2a <_go_tsk+0xb4>, lp
    1c2a:	44 fa       	add	4, lp
    1c2c:	6a 00       	jmp	[r10]
    1c2e:	e0 87 60 01 	ei	
    1c32:	3d 57 05 00 	ld.w	4[r29], r10
    1c36:	1d 18       	mov	r29, sp
    1c38:	23 ff 15 00 	ld.w	20[sp], lp
    1c3c:	23 ef 11 00 	ld.w	16[sp], r29
    1c40:	03 1e 18 00 	addi	24, sp, sp
    1c44:	7f 00       	jmp	[lp]

00001c46 <_isig_tim>:
    1c46:	54 1a       	add	-12, sp
    1c48:	63 ff 09 00 	st.w	lp, 8[sp]
    1c4c:	63 ef 05 00 	st.w	r29, 4[sp]
    1c50:	03 e8       	mov	sp, r29
    1c52:	2a 06 6e 2c 	mov	0x2c6e, r10
    1c56:	00 00 
    1c58:	80 ff 04 00 	jarl	1c5c <_isig_tim+0x16>, lp
    1c5c:	44 fa       	add	4, lp
    1c5e:	6a 00       	jmp	[r10]
    1c60:	7d 07 01 00 	st.w	r0, 0[r29]
    1c64:	85 4d       	br	1cf4 <_isig_tim+0xae>
    1c66:	2b 06 00 76 	mov	0x6ff7600, r11
    1c6a:	ff 06 
    1c6c:	3d 57 01 00 	ld.w	0[r29], r10
    1c70:	c2 52       	shl	2, r10
    1c72:	cb 51       	add	r11, r10
    1c74:	2a 57 01 00 	ld.w	0[r10], r10
    1c78:	60 52       	cmp	0, r10
    1c7a:	82 3d       	be	1cea <_isig_tim+0xa4>
    1c7c:	2b 06 00 76 	mov	0x6ff7600, r11
    1c80:	ff 06 
    1c82:	3d 57 01 00 	ld.w	0[r29], r10
    1c86:	c2 52       	shl	2, r10
    1c88:	cb 51       	add	r11, r10
    1c8a:	2a 57 01 00 	ld.w	0[r10], r10
    1c8e:	0a 66 ff ff 	addi	-1, r10, r12
    1c92:	2b 06 00 76 	mov	0x6ff7600, r11
    1c96:	ff 06 
    1c98:	3d 57 01 00 	ld.w	0[r29], r10
    1c9c:	c2 52       	shl	2, r10
    1c9e:	cb 51       	add	r11, r10
    1ca0:	6a 67 01 00 	st.w	r12, 0[r10]
    1ca4:	2b 06 00 76 	mov	0x6ff7600, r11
    1ca8:	ff 06 
    1caa:	3d 57 01 00 	ld.w	0[r29], r10
    1cae:	c2 52       	shl	2, r10
    1cb0:	cb 51       	add	r11, r10
    1cb2:	2a 57 01 00 	ld.w	0[r10], r10
    1cb6:	60 52       	cmp	0, r10
    1cb8:	9a 1d       	bne	1cea <_isig_tim+0xa4>
    1cba:	2b 06 f0 75 	mov	0x6ff75f0, r11
    1cbe:	ff 06 
    1cc0:	3d 57 01 00 	ld.w	0[r29], r10
    1cc4:	cb 51       	add	r11, r10
    1cc6:	4a 07 00 00 	st.b	r0, 0[r10]
    1cca:	3d 57 01 00 	ld.w	0[r29], r10
    1cce:	0a 30       	mov	r10, r6
    1cd0:	2a 06 e4 16 	mov	0x16e4, r10
    1cd4:	00 00 
    1cd6:	80 ff 04 00 	jarl	1cda <_isig_tim+0x94>, lp
    1cda:	44 fa       	add	4, lp
    1cdc:	6a 00       	jmp	[r10]
    1cde:	2a 06 04 84 	mov	0x6ff8404, r10
    1ce2:	ff 06 
    1ce4:	01 5a       	mov	1, r11
    1ce6:	6a 5f 01 00 	st.w	r11, 0[r10]
    1cea:	3d 57 01 00 	ld.w	0[r29], r10
    1cee:	41 52       	add	1, r10
    1cf0:	7d 57 01 00 	st.w	r10, 0[r29]
    1cf4:	3d 57 01 00 	ld.w	0[r29], r10
    1cf8:	61 52       	cmp	1, r10
    1cfa:	e7 b5       	ble	1c66 <_isig_tim+0x20>
    1cfc:	1d 18       	mov	r29, sp
    1cfe:	23 ff 09 00 	ld.w	8[sp], lp
    1d02:	23 ef 05 00 	ld.w	4[sp], r29
    1d06:	4c 1a       	add	12, sp
    1d08:	7f 00       	jmp	[lp]

00001d0a <_dly_tsk>:
    1d0a:	03 1e ec ff 	addi	-20, sp, sp
    1d0e:	63 ff 11 00 	st.w	lp, 16[sp]
    1d12:	63 ef 0d 00 	st.w	r29, 12[sp]
    1d16:	03 e8       	mov	sp, r29
    1d18:	7d 37 01 00 	st.w	r6, 0[r29]
    1d1c:	3d 57 01 00 	ld.w	0[r29], r10
    1d20:	7f 52       	cmp	-1, r10
    1d22:	ca 05       	bne	1d2a <_dly_tsk+0x20>
    1d24:	20 56 ef ff 	movea	-17, r0, r10
    1d28:	c5 4d       	br	1dc0 <_dly_tsk+0xb6>
    1d2a:	00 32       	mov	0, r6
    1d2c:	2a 06 a4 15 	mov	0x15a4, r10
    1d30:	00 00 
    1d32:	80 ff 04 00 	jarl	1d36 <_dly_tsk+0x2c>, lp
    1d36:	44 fa       	add	4, lp
    1d38:	6a 00       	jmp	[r10]
    1d3a:	7d 57 09 00 	st.w	r10, 8[r29]
    1d3e:	e0 07 60 01 	di	
    1d42:	2b 06 f0 75 	mov	0x6ff75f0, r11
    1d46:	ff 06 
    1d48:	3d 57 09 00 	ld.w	8[r29], r10
    1d4c:	cb 51       	add	r11, r10
    1d4e:	01 5a       	mov	1, r11
    1d50:	4a 5f 00 00 	st.b	r11, 0[r10]
    1d54:	3d 37 09 00 	ld.w	8[r29], r6
    1d58:	2a 06 1a 17 	mov	0x171a, r10
    1d5c:	00 00 
    1d5e:	80 ff 04 00 	jarl	1d62 <_dly_tsk+0x58>, lp
    1d62:	44 fa       	add	4, lp
    1d64:	6a 00       	jmp	[r10]
    1d66:	3d 57 01 00 	ld.w	0[r29], r10
    1d6a:	0a 66 01 00 	addi	1, r10, r12
    1d6e:	2b 06 00 76 	mov	0x6ff7600, r11
    1d72:	ff 06 
    1d74:	3d 57 09 00 	ld.w	8[r29], r10
    1d78:	c2 52       	shl	2, r10
    1d7a:	cb 51       	add	r11, r10
    1d7c:	6a 67 01 00 	st.w	r12, 0[r10]
    1d80:	3d 57 09 00 	ld.w	8[r29], r10
    1d84:	c6 52       	shl	6, r10
    1d86:	2b 06 08 76 	mov	0x6ff7608, r11
    1d8a:	ff 06 
    1d8c:	cb 51       	add	r11, r10
    1d8e:	0a 30       	mov	r10, r6
    1d90:	2a 06 84 2d 	mov	0x2d84, r10
    1d94:	00 00 
    1d96:	80 ff 04 00 	jarl	1d9a <_dly_tsk+0x90>, lp
    1d9a:	44 fa       	add	4, lp
    1d9c:	6a 00       	jmp	[r10]
    1d9e:	60 52       	cmp	0, r10
    1da0:	ca 0d       	bne	1db8 <_dly_tsk+0xae>
    1da2:	26 06 b0 83 	mov	0x6ff83b0, r6
    1da6:	ff 06 
    1da8:	01 3a       	mov	1, r7
    1daa:	2a 06 c4 2d 	mov	0x2dc4, r10
    1dae:	00 00 
    1db0:	80 ff 04 00 	jarl	1db4 <_dly_tsk+0xaa>, lp
    1db4:	44 fa       	add	4, lp
    1db6:	6a 00       	jmp	[r10]
    1db8:	e0 87 60 01 	ei	
    1dbc:	3d 57 05 00 	ld.w	4[r29], r10
    1dc0:	1d 18       	mov	r29, sp
    1dc2:	23 ff 11 00 	ld.w	16[sp], lp
    1dc6:	23 ef 0d 00 	ld.w	12[sp], r29
    1dca:	03 1e 14 00 	addi	20, sp, sp
    1dce:	7f 00       	jmp	[lp]

00001dd0 <__kernel_handler>:
    1dd0:	54 1a       	add	-12, sp
    1dd2:	63 ff 09 00 	st.w	lp, 8[sp]
    1dd6:	63 ef 05 00 	st.w	r29, 4[sp]
    1dda:	03 e8       	mov	sp, r29
    1ddc:	7d 37 01 00 	st.w	r6, 0[r29]
    1de0:	2a 06 fc 83 	mov	0x6ff83fc, r10
    1de4:	ff 06 
    1de6:	2a 57 00 00 	ld.h	0[r10], r10
    1dea:	ca 00       	zxh	r10
    1dec:	41 52       	add	1, r10
    1dee:	ca 5e ff ff 	andi	65535, r10, r11
    1df2:	2a 06 fc 83 	mov	0x6ff83fc, r10
    1df6:	ff 06 
    1df8:	6a 5f 00 00 	st.h	r11, 0[r10]
    1dfc:	3d 57 01 00 	ld.w	0[r29], r10
    1e00:	80 ff 04 00 	jarl	1e04 <__kernel_handler+0x34>, lp
    1e04:	44 fa       	add	4, lp
    1e06:	6a 00       	jmp	[r10]
    1e08:	2a 06 fc 83 	mov	0x6ff83fc, r10
    1e0c:	ff 06 
    1e0e:	2a 57 00 00 	ld.h	0[r10], r10
    1e12:	ca 00       	zxh	r10
    1e14:	5f 52       	add	-1, r10
    1e16:	ca 5e ff ff 	andi	65535, r10, r11
    1e1a:	2a 06 fc 83 	mov	0x6ff83fc, r10
    1e1e:	ff 06 
    1e20:	6a 5f 00 00 	st.h	r11, 0[r10]
    1e24:	2a 06 fc 83 	mov	0x6ff83fc, r10
    1e28:	ff 06 
    1e2a:	2a 57 00 00 	ld.h	0[r10], r10
    1e2e:	ca 00       	zxh	r10
    1e30:	60 52       	cmp	0, r10
    1e32:	aa 5d       	bne	1ee6 <__kernel_handler+0x116>
    1e34:	2a 06 04 84 	mov	0x6ff8404, r10
    1e38:	ff 06 
    1e3a:	2a 57 01 00 	ld.w	0[r10], r10
    1e3e:	60 52       	cmp	0, r10
    1e40:	b2 55       	be	1ee6 <__kernel_handler+0x116>
    1e42:	2a 06 04 84 	mov	0x6ff8404, r10
    1e46:	ff 06 
    1e48:	6a 07 01 00 	st.w	r0, 0[r10]
    1e4c:	2a 06 56 17 	mov	0x1756, r10
    1e50:	00 00 
    1e52:	80 ff 04 00 	jarl	1e56 <__kernel_handler+0x86>, lp
    1e56:	44 fa       	add	4, lp
    1e58:	6a 00       	jmp	[r10]
    1e5a:	0a 58       	mov	r10, r11
    1e5c:	2a 06 d4 75 	mov	0x6ff75d4, r10
    1e60:	ff 06 
    1e62:	6a 5f 01 00 	st.w	r11, 0[r10]
    1e66:	2a 06 f0 83 	mov	0x6ff83f0, r10
    1e6a:	ff 06 
    1e6c:	2a 5f 01 00 	ld.w	0[r10], r11
    1e70:	20 56 ff 00 	movea	255, r0, r10
    1e74:	ea 59       	cmp	r10, r11
    1e76:	82 3d       	be	1ee6 <__kernel_handler+0x116>
    1e78:	2a 06 f0 83 	mov	0x6ff83f0, r10
    1e7c:	ff 06 
    1e7e:	2a 5f 01 00 	ld.w	0[r10], r11
    1e82:	2a 06 d4 75 	mov	0x6ff75d4, r10
    1e86:	ff 06 
    1e88:	2a 57 01 00 	ld.w	0[r10], r10
    1e8c:	ea 59       	cmp	r10, r11
    1e8e:	c2 2d       	be	1ee6 <__kernel_handler+0x116>
    1e90:	5c 1a       	add	-4, sp
    1e92:	63 17 01 00 	st.w	r2, 0[sp]
    1e96:	94 07 c1 ff 	prepare	{r20 - r29}, 10
    1e9a:	2a 06 f0 83 	mov	0x6ff83f0, r10
    1e9e:	ff 06 
    1ea0:	2a 57 01 00 	ld.w	0[r10], r10
    1ea4:	c6 52       	shl	6, r10
    1ea6:	2b 06 08 76 	mov	0x6ff7608, r11
    1eaa:	ff 06 
    1eac:	cb 51       	add	r11, r10
    1eae:	0a 30       	mov	r10, r6
    1eb0:	2a 06 84 2d 	mov	0x2d84, r10
    1eb4:	00 00 
    1eb6:	80 ff 04 00 	jarl	1eba <__kernel_handler+0xea>, lp
    1eba:	44 fa       	add	4, lp
    1ebc:	6a 00       	jmp	[r10]
    1ebe:	60 52       	cmp	0, r10
    1ec0:	ea 0d       	bne	1edc <__kernel_handler+0x10c>
    1ec2:	2a 06 d4 75 	mov	0x6ff75d4, r10
    1ec6:	ff 06 
    1ec8:	2a 57 01 00 	ld.w	0[r10], r10
    1ecc:	0a 30       	mov	r10, r6
    1ece:	2a 06 04 1a 	mov	0x1a04, r10
    1ed2:	00 00 
    1ed4:	80 ff 04 00 	jarl	1ed8 <__kernel_handler+0x108>, lp
    1ed8:	44 fa       	add	4, lp
    1eda:	6a 00       	jmp	[r10]
    1edc:	54 06 c0 ff 	dispose	10, {r20 - r29}, r0
    1ee0:	23 17 01 00 	ld.w	0[sp], r2
    1ee4:	44 1a       	add	4, sp
    1ee6:	1d 18       	mov	r29, sp
    1ee8:	23 ff 09 00 	ld.w	8[sp], lp
    1eec:	23 ef 05 00 	ld.w	4[sp], r29
    1ef0:	4c 1a       	add	12, sp
    1ef2:	7f 00       	jmp	[lp]

00001ef4 <_act_tsk>:
    1ef4:	03 1e ec ff 	addi	-20, sp, sp
    1ef8:	63 ff 11 00 	st.w	lp, 16[sp]
    1efc:	63 ef 0d 00 	st.w	r29, 12[sp]
    1f00:	03 e8       	mov	sp, r29
    1f02:	7d 37 01 00 	st.w	r6, 0[r29]
    1f06:	3d 57 01 00 	ld.w	0[r29], r10
    1f0a:	60 52       	cmp	0, r10
    1f0c:	a7 0d       	ble	1f20 <_act_tsk+0x2c>
    1f0e:	2a 06 b4 2e 	mov	0x2eb4, r10
    1f12:	00 00 
    1f14:	2a 57 01 00 	ld.w	0[r10], r10
    1f18:	3d 5f 01 00 	ld.w	0[r29], r11
    1f1c:	ea 59       	cmp	r10, r11
    1f1e:	a7 0d       	ble	1f32 <_act_tsk+0x3e>
    1f20:	3d 57 01 00 	ld.w	0[r29], r10
    1f24:	60 52       	cmp	0, r10
    1f26:	e2 05       	be	1f32 <_act_tsk+0x3e>
    1f28:	20 56 ee ff 	movea	-18, r0, r10
    1f2c:	7d 57 09 00 	st.w	r10, 8[r29]
    1f30:	e5 35       	br	1f9c <_act_tsk+0xa8>
    1f32:	3d 37 01 00 	ld.w	0[r29], r6
    1f36:	2a 06 a4 15 	mov	0x15a4, r10
    1f3a:	00 00 
    1f3c:	80 ff 04 00 	jarl	1f40 <_act_tsk+0x4c>, lp
    1f40:	44 fa       	add	4, lp
    1f42:	6a 00       	jmp	[r10]
    1f44:	7d 57 05 00 	st.w	r10, 4[r29]
    1f48:	e0 07 60 01 	di	
    1f4c:	3d 37 05 00 	ld.w	4[r29], r6
    1f50:	2a 06 7e 17 	mov	0x177e, r10
    1f54:	00 00 
    1f56:	80 ff 04 00 	jarl	1f5a <_act_tsk+0x66>, lp
    1f5a:	44 fa       	add	4, lp
    1f5c:	6a 00       	jmp	[r10]
    1f5e:	60 52       	cmp	0, r10
    1f60:	82 1d       	be	1f90 <_act_tsk+0x9c>
    1f62:	3d 37 05 00 	ld.w	4[r29], r6
    1f66:	2a 06 8e 19 	mov	0x198e, r10
    1f6a:	00 00 
    1f6c:	80 ff 04 00 	jarl	1f70 <_act_tsk+0x7c>, lp
    1f70:	44 fa       	add	4, lp
    1f72:	6a 00       	jmp	[r10]
    1f74:	60 52       	cmp	0, r10
    1f76:	a2 0d       	be	1f8a <_act_tsk+0x96>
    1f78:	3d 37 05 00 	ld.w	4[r29], r6
    1f7c:	2a 06 50 1a 	mov	0x1a50, r10
    1f80:	00 00 
    1f82:	80 ff 04 00 	jarl	1f86 <_act_tsk+0x92>, lp
    1f86:	44 fa       	add	4, lp
    1f88:	6a 00       	jmp	[r10]
    1f8a:	7d 07 09 00 	st.w	r0, 8[r29]
    1f8e:	d5 05       	br	1f98 <_act_tsk+0xa4>
    1f90:	20 56 d5 ff 	movea	-43, r0, r10
    1f94:	7d 57 09 00 	st.w	r10, 8[r29]
    1f98:	e0 87 60 01 	ei	
    1f9c:	3d 57 09 00 	ld.w	8[r29], r10
    1fa0:	1d 18       	mov	r29, sp
    1fa2:	23 ff 11 00 	ld.w	16[sp], lp
    1fa6:	23 ef 0d 00 	ld.w	12[sp], r29
    1faa:	03 1e 14 00 	addi	20, sp, sp
    1fae:	7f 00       	jmp	[lp]

00001fb0 <_iact_tsk>:
    1fb0:	03 1e ec ff 	addi	-20, sp, sp
    1fb4:	63 ff 11 00 	st.w	lp, 16[sp]
    1fb8:	63 ef 0d 00 	st.w	r29, 12[sp]
    1fbc:	03 e8       	mov	sp, r29
    1fbe:	7d 37 01 00 	st.w	r6, 0[r29]
    1fc2:	3d 57 01 00 	ld.w	0[r29], r10
    1fc6:	60 52       	cmp	0, r10
    1fc8:	a7 0d       	ble	1fdc <_iact_tsk+0x2c>
    1fca:	2a 06 b4 2e 	mov	0x2eb4, r10
    1fce:	00 00 
    1fd0:	2a 57 01 00 	ld.w	0[r10], r10
    1fd4:	3d 5f 01 00 	ld.w	0[r29], r11
    1fd8:	ea 59       	cmp	r10, r11
    1fda:	e7 05       	ble	1fe6 <_iact_tsk+0x36>
    1fdc:	20 56 ee ff 	movea	-18, r0, r10
    1fe0:	7d 57 09 00 	st.w	r10, 8[r29]
    1fe4:	b5 35       	br	204a <_iact_tsk+0x9a>
    1fe6:	3d 37 01 00 	ld.w	0[r29], r6
    1fea:	2a 06 e0 15 	mov	0x15e0, r10
    1fee:	00 00 
    1ff0:	80 ff 04 00 	jarl	1ff4 <_iact_tsk+0x44>, lp
    1ff4:	44 fa       	add	4, lp
    1ff6:	6a 00       	jmp	[r10]
    1ff8:	7d 57 05 00 	st.w	r10, 4[r29]
    1ffc:	e0 07 60 01 	di	
    2000:	3d 37 05 00 	ld.w	4[r29], r6
    2004:	2a 06 7e 17 	mov	0x177e, r10
    2008:	00 00 
    200a:	80 ff 04 00 	jarl	200e <_iact_tsk+0x5e>, lp
    200e:	44 fa       	add	4, lp
    2010:	6a 00       	jmp	[r10]
    2012:	60 52       	cmp	0, r10
    2014:	d2 15       	be	203e <_iact_tsk+0x8e>
    2016:	3d 37 05 00 	ld.w	4[r29], r6
    201a:	2a 06 8e 19 	mov	0x198e, r10
    201e:	00 00 
    2020:	80 ff 04 00 	jarl	2024 <_iact_tsk+0x74>, lp
    2024:	44 fa       	add	4, lp
    2026:	6a 00       	jmp	[r10]
    2028:	60 52       	cmp	0, r10
    202a:	f2 05       	be	2038 <_iact_tsk+0x88>
    202c:	2a 06 04 84 	mov	0x6ff8404, r10
    2030:	ff 06 
    2032:	01 5a       	mov	1, r11
    2034:	6a 5f 01 00 	st.w	r11, 0[r10]
    2038:	7d 07 09 00 	st.w	r0, 8[r29]
    203c:	d5 05       	br	2046 <_iact_tsk+0x96>
    203e:	20 56 d5 ff 	movea	-43, r0, r10
    2042:	7d 57 09 00 	st.w	r10, 8[r29]
    2046:	e0 87 60 01 	ei	
    204a:	3d 57 09 00 	ld.w	8[r29], r10
    204e:	1d 18       	mov	r29, sp
    2050:	23 ff 11 00 	ld.w	16[sp], lp
    2054:	23 ef 0d 00 	ld.w	12[sp], r29
    2058:	03 1e 14 00 	addi	20, sp, sp
    205c:	7f 00       	jmp	[lp]

0000205e <_sense_context>:
    205e:	5c 1a       	add	-4, sp
    2060:	63 ef 01 00 	st.w	r29, 0[sp]
    2064:	03 e8       	mov	sp, r29
    2066:	00 52       	mov	0, r10
    2068:	1d 18       	mov	r29, sp
    206a:	23 ef 01 00 	ld.w	0[sp], r29
    206e:	44 1a       	add	4, sp
    2070:	7f 00       	jmp	[lp]

00002072 <__kernel_initialize_alarm>:
    2072:	5c 1a       	add	-4, sp
    2074:	63 ef 01 00 	st.w	r29, 0[sp]
    2078:	03 e8       	mov	sp, r29
    207a:	2a 06 ec 75 	mov	0x6ff75ec, r10
    207e:	ff 06 
    2080:	6a 07 01 00 	st.w	r0, 0[r10]
    2084:	1d 18       	mov	r29, sp
    2086:	23 ef 01 00 	ld.w	0[sp], r29
    208a:	44 1a       	add	4, sp
    208c:	7f 00       	jmp	[lp]

0000208e <_sta_alm>:
    208e:	03 1e e8 ff 	addi	-24, sp, sp
    2092:	63 ff 15 00 	st.w	lp, 20[sp]
    2096:	63 ef 11 00 	st.w	r29, 16[sp]
    209a:	03 e8       	mov	sp, r29
    209c:	7d 37 05 00 	st.w	r6, 4[r29]
    20a0:	7d 3f 01 00 	st.w	r7, 0[r29]
    20a4:	3d 57 05 00 	ld.w	4[r29], r10
    20a8:	5f 52       	add	-1, r10
    20aa:	7d 57 09 00 	st.w	r10, 8[r29]
    20ae:	2a 06 5e 20 	mov	0x205e, r10
    20b2:	00 00 
    20b4:	80 ff 04 00 	jarl	20b8 <_sta_alm+0x2a>, lp
    20b8:	44 fa       	add	4, lp
    20ba:	6a 00       	jmp	[r10]
    20bc:	60 52       	cmp	0, r10
    20be:	aa 0d       	bne	20d2 <_sta_alm+0x44>
    20c0:	2a 06 5e 20 	mov	0x205e, r10
    20c4:	00 00 
    20c6:	80 ff 04 00 	jarl	20ca <_sta_alm+0x3c>, lp
    20ca:	44 fa       	add	4, lp
    20cc:	6a 00       	jmp	[r10]
    20ce:	60 52       	cmp	0, r10
    20d0:	e2 05       	be	20dc <_sta_alm+0x4e>
    20d2:	20 56 e7 ff 	movea	-25, r0, r10
    20d6:	7d 57 0d 00 	st.w	r10, 12[r29]
    20da:	85 6d       	br	21aa <_sta_alm+0x11c>
    20dc:	3d 57 05 00 	ld.w	4[r29], r10
    20e0:	60 52       	cmp	0, r10
    20e2:	a7 0d       	ble	20f6 <_sta_alm+0x68>
    20e4:	2a 06 f8 2e 	mov	0x2ef8, r10
    20e8:	00 00 
    20ea:	2a 57 01 00 	ld.w	0[r10], r10
    20ee:	3d 5f 05 00 	ld.w	4[r29], r11
    20f2:	ea 59       	cmp	r10, r11
    20f4:	e7 05       	ble	2100 <_sta_alm+0x72>
    20f6:	20 56 ee ff 	movea	-18, r0, r10
    20fa:	7d 57 0d 00 	st.w	r10, 12[r29]
    20fe:	e5 55       	br	21aa <_sta_alm+0x11c>
    2100:	e0 07 60 01 	di	
    2104:	3d 57 09 00 	ld.w	8[r29], r10
    2108:	01 5a       	mov	1, r11
    210a:	ea 5f c0 00 	shl	r10, r11
    210e:	2a 06 ec 75 	mov	0x6ff75ec, r10
    2112:	ff 06 
    2114:	2a 57 01 00 	ld.w	0[r10], r10
    2118:	4b 51       	and	r11, r10
    211a:	60 52       	cmp	0, r10
    211c:	b2 15       	be	2142 <_sta_alm+0xb4>
    211e:	3d 5f 05 00 	ld.w	4[r29], r11
    2122:	2a 06 fc 2e 	mov	0x2efc, r10
    2126:	00 00 
    2128:	2a 57 01 00 	ld.w	0[r10], r10
    212c:	cb 51       	add	r11, r10
    212e:	5f 52       	add	-1, r10
    2130:	0a 30       	mov	r10, r6
    2132:	2a 06 34 2c 	mov	0x2c34, r10
    2136:	00 00 
    2138:	80 ff 04 00 	jarl	213c <_sta_alm+0xae>, lp
    213c:	44 fa       	add	4, lp
    213e:	6a 00       	jmp	[r10]
    2140:	95 15       	br	2162 <_sta_alm+0xd4>
    2142:	3d 57 09 00 	ld.w	8[r29], r10
    2146:	01 5a       	mov	1, r11
    2148:	ea 5f c0 00 	shl	r10, r11
    214c:	2a 06 ec 75 	mov	0x6ff75ec, r10
    2150:	ff 06 
    2152:	2a 57 01 00 	ld.w	0[r10], r10
    2156:	0a 59       	or	r10, r11
    2158:	2a 06 ec 75 	mov	0x6ff75ec, r10
    215c:	ff 06 
    215e:	6a 5f 01 00 	st.w	r11, 0[r10]
    2162:	3d 5f 05 00 	ld.w	4[r29], r11
    2166:	2a 06 fc 2e 	mov	0x2efc, r10
    216a:	00 00 
    216c:	2a 57 01 00 	ld.w	0[r10], r10
    2170:	cb 51       	add	r11, r10
    2172:	5f 52       	add	-1, r10
    2174:	0a 60       	mov	r10, r12
    2176:	2a 06 0c 84 	mov	0x6ff840c, r10
    217a:	ff 06 
    217c:	2a 5f 01 00 	ld.w	0[r10], r11
    2180:	3d 57 01 00 	ld.w	0[r29], r10
    2184:	cb 51       	add	r11, r10
    2186:	0c 30       	mov	r12, r6
    2188:	0a 38       	mov	r10, r7
    218a:	28 06 ce 24 	mov	0x24ce, r8
    218e:	00 00 
    2190:	3d 4f 09 00 	ld.w	8[r29], r9
    2194:	2a 06 28 2b 	mov	0x2b28, r10
    2198:	00 00 
    219a:	80 ff 04 00 	jarl	219e <_sta_alm+0x110>, lp
    219e:	44 fa       	add	4, lp
    21a0:	6a 00       	jmp	[r10]
    21a2:	7d 07 0d 00 	st.w	r0, 12[r29]
    21a6:	e0 87 60 01 	ei	
    21aa:	3d 57 0d 00 	ld.w	12[r29], r10
    21ae:	1d 18       	mov	r29, sp
    21b0:	23 ff 15 00 	ld.w	20[sp], lp
    21b4:	23 ef 11 00 	ld.w	16[sp], r29
    21b8:	03 1e 18 00 	addi	24, sp, sp
    21bc:	7f 00       	jmp	[lp]

000021be <_ista_alm>:
    21be:	03 1e e8 ff 	addi	-24, sp, sp
    21c2:	63 ff 15 00 	st.w	lp, 20[sp]
    21c6:	63 ef 11 00 	st.w	r29, 16[sp]
    21ca:	03 e8       	mov	sp, r29
    21cc:	7d 37 05 00 	st.w	r6, 4[r29]
    21d0:	7d 3f 01 00 	st.w	r7, 0[r29]
    21d4:	3d 57 05 00 	ld.w	4[r29], r10
    21d8:	5f 52       	add	-1, r10
    21da:	7d 57 09 00 	st.w	r10, 8[r29]
    21de:	2a 06 5e 20 	mov	0x205e, r10
    21e2:	00 00 
    21e4:	80 ff 04 00 	jarl	21e8 <_ista_alm+0x2a>, lp
    21e8:	44 fa       	add	4, lp
    21ea:	6a 00       	jmp	[r10]
    21ec:	60 52       	cmp	0, r10
    21ee:	a2 0d       	be	2202 <_ista_alm+0x44>
    21f0:	2a 06 5e 20 	mov	0x205e, r10
    21f4:	00 00 
    21f6:	80 ff 04 00 	jarl	21fa <_ista_alm+0x3c>, lp
    21fa:	44 fa       	add	4, lp
    21fc:	6a 00       	jmp	[r10]
    21fe:	60 52       	cmp	0, r10
    2200:	e2 05       	be	220c <_ista_alm+0x4e>
    2202:	20 56 e7 ff 	movea	-25, r0, r10
    2206:	7d 57 0d 00 	st.w	r10, 12[r29]
    220a:	85 6d       	br	22da <_ista_alm+0x11c>
    220c:	3d 57 05 00 	ld.w	4[r29], r10
    2210:	60 52       	cmp	0, r10
    2212:	a7 0d       	ble	2226 <_ista_alm+0x68>
    2214:	2a 06 f8 2e 	mov	0x2ef8, r10
    2218:	00 00 
    221a:	2a 57 01 00 	ld.w	0[r10], r10
    221e:	3d 5f 05 00 	ld.w	4[r29], r11
    2222:	ea 59       	cmp	r10, r11
    2224:	e7 05       	ble	2230 <_ista_alm+0x72>
    2226:	20 56 ee ff 	movea	-18, r0, r10
    222a:	7d 57 0d 00 	st.w	r10, 12[r29]
    222e:	e5 55       	br	22da <_ista_alm+0x11c>
    2230:	e0 07 60 01 	di	
    2234:	3d 57 09 00 	ld.w	8[r29], r10
    2238:	01 5a       	mov	1, r11
    223a:	ea 5f c0 00 	shl	r10, r11
    223e:	2a 06 ec 75 	mov	0x6ff75ec, r10
    2242:	ff 06 
    2244:	2a 57 01 00 	ld.w	0[r10], r10
    2248:	4b 51       	and	r11, r10
    224a:	60 52       	cmp	0, r10
    224c:	b2 15       	be	2272 <_ista_alm+0xb4>
    224e:	3d 5f 05 00 	ld.w	4[r29], r11
    2252:	2a 06 fc 2e 	mov	0x2efc, r10
    2256:	00 00 
    2258:	2a 57 01 00 	ld.w	0[r10], r10
    225c:	cb 51       	add	r11, r10
    225e:	5f 52       	add	-1, r10
    2260:	0a 30       	mov	r10, r6
    2262:	2a 06 34 2c 	mov	0x2c34, r10
    2266:	00 00 
    2268:	80 ff 04 00 	jarl	226c <_ista_alm+0xae>, lp
    226c:	44 fa       	add	4, lp
    226e:	6a 00       	jmp	[r10]
    2270:	95 15       	br	2292 <_ista_alm+0xd4>
    2272:	3d 57 09 00 	ld.w	8[r29], r10
    2276:	01 5a       	mov	1, r11
    2278:	ea 5f c0 00 	shl	r10, r11
    227c:	2a 06 ec 75 	mov	0x6ff75ec, r10
    2280:	ff 06 
    2282:	2a 57 01 00 	ld.w	0[r10], r10
    2286:	0a 59       	or	r10, r11
    2288:	2a 06 ec 75 	mov	0x6ff75ec, r10
    228c:	ff 06 
    228e:	6a 5f 01 00 	st.w	r11, 0[r10]
    2292:	3d 5f 05 00 	ld.w	4[r29], r11
    2296:	2a 06 fc 2e 	mov	0x2efc, r10
    229a:	00 00 
    229c:	2a 57 01 00 	ld.w	0[r10], r10
    22a0:	cb 51       	add	r11, r10
    22a2:	5f 52       	add	-1, r10
    22a4:	0a 60       	mov	r10, r12
    22a6:	2a 06 0c 84 	mov	0x6ff840c, r10
    22aa:	ff 06 
    22ac:	2a 5f 01 00 	ld.w	0[r10], r11
    22b0:	3d 57 01 00 	ld.w	0[r29], r10
    22b4:	cb 51       	add	r11, r10
    22b6:	0c 30       	mov	r12, r6
    22b8:	0a 38       	mov	r10, r7
    22ba:	28 06 ce 24 	mov	0x24ce, r8
    22be:	00 00 
    22c0:	3d 4f 09 00 	ld.w	8[r29], r9
    22c4:	2a 06 28 2b 	mov	0x2b28, r10
    22c8:	00 00 
    22ca:	80 ff 04 00 	jarl	22ce <_ista_alm+0x110>, lp
    22ce:	44 fa       	add	4, lp
    22d0:	6a 00       	jmp	[r10]
    22d2:	7d 07 0d 00 	st.w	r0, 12[r29]
    22d6:	e0 87 60 01 	ei	
    22da:	3d 57 0d 00 	ld.w	12[r29], r10
    22de:	1d 18       	mov	r29, sp
    22e0:	23 ff 15 00 	ld.w	20[sp], lp
    22e4:	23 ef 11 00 	ld.w	16[sp], r29
    22e8:	03 1e 18 00 	addi	24, sp, sp
    22ec:	7f 00       	jmp	[lp]

000022ee <_stp_alm>:
    22ee:	03 1e ec ff 	addi	-20, sp, sp
    22f2:	63 ff 11 00 	st.w	lp, 16[sp]
    22f6:	63 ef 0d 00 	st.w	r29, 12[sp]
    22fa:	03 e8       	mov	sp, r29
    22fc:	7d 37 01 00 	st.w	r6, 0[r29]
    2300:	3d 57 01 00 	ld.w	0[r29], r10
    2304:	5f 52       	add	-1, r10
    2306:	7d 57 05 00 	st.w	r10, 4[r29]
    230a:	2a 06 5e 20 	mov	0x205e, r10
    230e:	00 00 
    2310:	80 ff 04 00 	jarl	2314 <_stp_alm+0x26>, lp
    2314:	44 fa       	add	4, lp
    2316:	6a 00       	jmp	[r10]
    2318:	60 52       	cmp	0, r10
    231a:	aa 0d       	bne	232e <_stp_alm+0x40>
    231c:	2a 06 5e 20 	mov	0x205e, r10
    2320:	00 00 
    2322:	80 ff 04 00 	jarl	2326 <_stp_alm+0x38>, lp
    2326:	44 fa       	add	4, lp
    2328:	6a 00       	jmp	[r10]
    232a:	60 52       	cmp	0, r10
    232c:	e2 05       	be	2338 <_stp_alm+0x4a>
    232e:	20 56 e7 ff 	movea	-25, r0, r10
    2332:	7d 57 09 00 	st.w	r10, 8[r29]
    2336:	a5 4d       	br	23ca <_stp_alm+0xdc>
    2338:	3d 57 01 00 	ld.w	0[r29], r10
    233c:	60 52       	cmp	0, r10
    233e:	a7 0d       	ble	2352 <_stp_alm+0x64>
    2340:	2a 06 f8 2e 	mov	0x2ef8, r10
    2344:	00 00 
    2346:	2a 57 01 00 	ld.w	0[r10], r10
    234a:	3d 5f 01 00 	ld.w	0[r29], r11
    234e:	ea 59       	cmp	r10, r11
    2350:	e7 05       	ble	235c <_stp_alm+0x6e>
    2352:	20 56 ee ff 	movea	-18, r0, r10
    2356:	7d 57 09 00 	st.w	r10, 8[r29]
    235a:	85 3d       	br	23ca <_stp_alm+0xdc>
    235c:	e0 07 60 01 	di	
    2360:	3d 57 05 00 	ld.w	4[r29], r10
    2364:	01 5a       	mov	1, r11
    2366:	ea 5f c0 00 	shl	r10, r11
    236a:	2a 06 ec 75 	mov	0x6ff75ec, r10
    236e:	ff 06 
    2370:	2a 57 01 00 	ld.w	0[r10], r10
    2374:	4b 51       	and	r11, r10
    2376:	60 52       	cmp	0, r10
    2378:	d2 25       	be	23c2 <_stp_alm+0xd4>
    237a:	3d 57 05 00 	ld.w	4[r29], r10
    237e:	01 5a       	mov	1, r11
    2380:	0b 60       	mov	r11, r12
    2382:	ea 67 c0 00 	shl	r10, r12
    2386:	0c 50       	mov	r12, r10
    2388:	2a 58       	not	r10, r11
    238a:	2a 06 ec 75 	mov	0x6ff75ec, r10
    238e:	ff 06 
    2390:	2a 57 01 00 	ld.w	0[r10], r10
    2394:	4a 59       	and	r10, r11
    2396:	2a 06 ec 75 	mov	0x6ff75ec, r10
    239a:	ff 06 
    239c:	6a 5f 01 00 	st.w	r11, 0[r10]
    23a0:	3d 5f 01 00 	ld.w	0[r29], r11
    23a4:	2a 06 fc 2e 	mov	0x2efc, r10
    23a8:	00 00 
    23aa:	2a 57 01 00 	ld.w	0[r10], r10
    23ae:	cb 51       	add	r11, r10
    23b0:	5f 52       	add	-1, r10
    23b2:	0a 30       	mov	r10, r6
    23b4:	2a 06 34 2c 	mov	0x2c34, r10
    23b8:	00 00 
    23ba:	80 ff 04 00 	jarl	23be <_stp_alm+0xd0>, lp
    23be:	44 fa       	add	4, lp
    23c0:	6a 00       	jmp	[r10]
    23c2:	7d 07 09 00 	st.w	r0, 8[r29]
    23c6:	e0 87 60 01 	ei	
    23ca:	3d 57 09 00 	ld.w	8[r29], r10
    23ce:	1d 18       	mov	r29, sp
    23d0:	23 ff 11 00 	ld.w	16[sp], lp
    23d4:	23 ef 0d 00 	ld.w	12[sp], r29
    23d8:	03 1e 14 00 	addi	20, sp, sp
    23dc:	7f 00       	jmp	[lp]

000023de <_istp_alm>:
    23de:	03 1e ec ff 	addi	-20, sp, sp
    23e2:	63 ff 11 00 	st.w	lp, 16[sp]
    23e6:	63 ef 0d 00 	st.w	r29, 12[sp]
    23ea:	03 e8       	mov	sp, r29
    23ec:	7d 37 01 00 	st.w	r6, 0[r29]
    23f0:	3d 57 01 00 	ld.w	0[r29], r10
    23f4:	5f 52       	add	-1, r10
    23f6:	7d 57 05 00 	st.w	r10, 4[r29]
    23fa:	2a 06 5e 20 	mov	0x205e, r10
    23fe:	00 00 
    2400:	80 ff 04 00 	jarl	2404 <_istp_alm+0x26>, lp
    2404:	44 fa       	add	4, lp
    2406:	6a 00       	jmp	[r10]
    2408:	60 52       	cmp	0, r10
    240a:	a2 0d       	be	241e <_istp_alm+0x40>
    240c:	2a 06 5e 20 	mov	0x205e, r10
    2410:	00 00 
    2412:	80 ff 04 00 	jarl	2416 <_istp_alm+0x38>, lp
    2416:	44 fa       	add	4, lp
    2418:	6a 00       	jmp	[r10]
    241a:	60 52       	cmp	0, r10
    241c:	e2 05       	be	2428 <_istp_alm+0x4a>
    241e:	20 56 e7 ff 	movea	-25, r0, r10
    2422:	7d 57 09 00 	st.w	r10, 8[r29]
    2426:	a5 4d       	br	24ba <_istp_alm+0xdc>
    2428:	3d 57 01 00 	ld.w	0[r29], r10
    242c:	60 52       	cmp	0, r10
    242e:	a7 0d       	ble	2442 <_istp_alm+0x64>
    2430:	2a 06 f8 2e 	mov	0x2ef8, r10
    2434:	00 00 
    2436:	2a 57 01 00 	ld.w	0[r10], r10
    243a:	3d 5f 01 00 	ld.w	0[r29], r11
    243e:	ea 59       	cmp	r10, r11
    2440:	e7 05       	ble	244c <_istp_alm+0x6e>
    2442:	20 56 ee ff 	movea	-18, r0, r10
    2446:	7d 57 09 00 	st.w	r10, 8[r29]
    244a:	85 3d       	br	24ba <_istp_alm+0xdc>
    244c:	e0 07 60 01 	di	
    2450:	3d 57 05 00 	ld.w	4[r29], r10
    2454:	01 5a       	mov	1, r11
    2456:	ea 5f c0 00 	shl	r10, r11
    245a:	2a 06 ec 75 	mov	0x6ff75ec, r10
    245e:	ff 06 
    2460:	2a 57 01 00 	ld.w	0[r10], r10
    2464:	4b 51       	and	r11, r10
    2466:	60 52       	cmp	0, r10
    2468:	d2 25       	be	24b2 <_istp_alm+0xd4>
    246a:	3d 57 05 00 	ld.w	4[r29], r10
    246e:	01 5a       	mov	1, r11
    2470:	0b 60       	mov	r11, r12
    2472:	ea 67 c0 00 	shl	r10, r12
    2476:	0c 50       	mov	r12, r10
    2478:	2a 58       	not	r10, r11
    247a:	2a 06 ec 75 	mov	0x6ff75ec, r10
    247e:	ff 06 
    2480:	2a 57 01 00 	ld.w	0[r10], r10
    2484:	4a 59       	and	r10, r11
    2486:	2a 06 ec 75 	mov	0x6ff75ec, r10
    248a:	ff 06 
    248c:	6a 5f 01 00 	st.w	r11, 0[r10]
    2490:	3d 5f 01 00 	ld.w	0[r29], r11
    2494:	2a 06 fc 2e 	mov	0x2efc, r10
    2498:	00 00 
    249a:	2a 57 01 00 	ld.w	0[r10], r10
    249e:	cb 51       	add	r11, r10
    24a0:	5f 52       	add	-1, r10
    24a2:	0a 30       	mov	r10, r6
    24a4:	2a 06 34 2c 	mov	0x2c34, r10
    24a8:	00 00 
    24aa:	80 ff 04 00 	jarl	24ae <_istp_alm+0xd0>, lp
    24ae:	44 fa       	add	4, lp
    24b0:	6a 00       	jmp	[r10]
    24b2:	7d 07 09 00 	st.w	r0, 8[r29]
    24b6:	e0 87 60 01 	ei	
    24ba:	3d 57 09 00 	ld.w	8[r29], r10
    24be:	1d 18       	mov	r29, sp
    24c0:	23 ff 11 00 	ld.w	16[sp], lp
    24c4:	23 ef 0d 00 	ld.w	12[sp], r29
    24c8:	03 1e 14 00 	addi	20, sp, sp
    24cc:	7f 00       	jmp	[lp]

000024ce <__kernel_call_almhdr>:
    24ce:	54 1a       	add	-12, sp
    24d0:	63 ff 09 00 	st.w	lp, 8[sp]
    24d4:	63 ef 05 00 	st.w	r29, 4[sp]
    24d8:	03 e8       	mov	sp, r29
    24da:	7d 37 01 00 	st.w	r6, 0[r29]
    24de:	3d 57 01 00 	ld.w	0[r29], r10
    24e2:	01 5a       	mov	1, r11
    24e4:	0b 60       	mov	r11, r12
    24e6:	ea 67 c0 00 	shl	r10, r12
    24ea:	0c 50       	mov	r12, r10
    24ec:	2a 58       	not	r10, r11
    24ee:	2a 06 ec 75 	mov	0x6ff75ec, r10
    24f2:	ff 06 
    24f4:	2a 57 01 00 	ld.w	0[r10], r10
    24f8:	4a 59       	and	r10, r11
    24fa:	2a 06 ec 75 	mov	0x6ff75ec, r10
    24fe:	ff 06 
    2500:	6a 5f 01 00 	st.w	r11, 0[r10]
    2504:	e0 87 60 01 	ei	
    2508:	2b 06 00 2f 	mov	0x2f00, r11
    250c:	00 00 
    250e:	3d 57 01 00 	ld.w	0[r29], r10
    2512:	c2 52       	shl	2, r10
    2514:	cb 51       	add	r11, r10
    2516:	2a 57 01 00 	ld.w	0[r10], r10
    251a:	2c 06 08 2f 	mov	0x2f08, r12
    251e:	00 00 
    2520:	3d 5f 01 00 	ld.w	0[r29], r11
    2524:	c2 5a       	shl	2, r11
    2526:	cc 59       	add	r12, r11
    2528:	2b 5f 01 00 	ld.w	0[r11], r11
    252c:	0b 30       	mov	r11, r6
    252e:	80 ff 04 00 	jarl	2532 <__kernel_call_almhdr+0x64>, lp
    2532:	44 fa       	add	4, lp
    2534:	6a 00       	jmp	[r10]
    2536:	2a 06 5e 20 	mov	0x205e, r10
    253a:	00 00 
    253c:	80 ff 04 00 	jarl	2540 <__kernel_call_almhdr+0x72>, lp
    2540:	44 fa       	add	4, lp
    2542:	6a 00       	jmp	[r10]
    2544:	60 52       	cmp	0, r10
    2546:	ba 05       	bne	254c <__kernel_call_almhdr+0x7e>
    2548:	e0 07 60 01 	di	
    254c:	1d 18       	mov	r29, sp
    254e:	23 ff 09 00 	ld.w	8[sp], lp
    2552:	23 ef 05 00 	ld.w	4[sp], r29
    2556:	4c 1a       	add	12, sp
    2558:	7f 00       	jmp	[lp]

0000255a <_sense_context>:
    255a:	5c 1a       	add	-4, sp
    255c:	63 ef 01 00 	st.w	r29, 0[sp]
    2560:	03 e8       	mov	sp, r29
    2562:	00 52       	mov	0, r10
    2564:	1d 18       	mov	r29, sp
    2566:	23 ef 01 00 	ld.w	0[sp], r29
    256a:	44 1a       	add	4, sp
    256c:	7f 00       	jmp	[lp]

0000256e <__kernel_initialize_cyclic>:
    256e:	54 1a       	add	-12, sp
    2570:	63 ff 09 00 	st.w	lp, 8[sp]
    2574:	63 ef 05 00 	st.w	r29, 4[sp]
    2578:	03 e8       	mov	sp, r29
    257a:	2a 06 e4 2e 	mov	0x2ee4, r10
    257e:	00 00 
    2580:	2a 5f 01 00 	ld.w	0[r10], r11
    2584:	2a 06 ac 83 	mov	0x6ff83ac, r10
    2588:	ff 06 
    258a:	6a 5f 01 00 	st.w	r11, 0[r10]
    258e:	7d 07 01 00 	st.w	r0, 0[r29]
    2592:	85 55       	br	2632 <__kernel_initialize_cyclic+0xc4>
    2594:	2b 06 f4 75 	mov	0x6ff75f4, r11
    2598:	ff 06 
    259a:	3d 57 01 00 	ld.w	0[r29], r10
    259e:	c2 52       	shl	2, r10
    25a0:	cb 51       	add	r11, r10
    25a2:	6a 07 01 00 	st.w	r0, 0[r10]
    25a6:	2a 06 e4 2e 	mov	0x2ee4, r10
    25aa:	00 00 
    25ac:	2a 5f 01 00 	ld.w	0[r10], r11
    25b0:	3d 57 01 00 	ld.w	0[r29], r10
    25b4:	0b 60       	mov	r11, r12
    25b6:	ea 67 80 00 	shr	r10, r12
    25ba:	0c 50       	mov	r12, r10
    25bc:	ca 56 01 00 	andi	1, r10, r10
    25c0:	60 52       	cmp	0, r10
    25c2:	b2 35       	be	2628 <__kernel_initialize_cyclic+0xba>
    25c4:	2a 06 e0 2e 	mov	0x2ee0, r10
    25c8:	00 00 
    25ca:	2a 5f 01 00 	ld.w	0[r10], r11
    25ce:	3d 57 01 00 	ld.w	0[r29], r10
    25d2:	cb 51       	add	r11, r10
    25d4:	0a 60       	mov	r10, r12
    25d6:	2b 06 f4 2e 	mov	0x2ef4, r11
    25da:	00 00 
    25dc:	3d 57 01 00 	ld.w	0[r29], r10
    25e0:	c2 52       	shl	2, r10
    25e2:	cb 51       	add	r11, r10
    25e4:	2a 57 01 00 	ld.w	0[r10], r10
    25e8:	0c 30       	mov	r12, r6
    25ea:	0a 38       	mov	r10, r7
    25ec:	28 06 94 28 	mov	0x2894, r8
    25f0:	00 00 
    25f2:	3d 4f 01 00 	ld.w	0[r29], r9
    25f6:	2a 06 28 2b 	mov	0x2b28, r10
    25fa:	00 00 
    25fc:	80 ff 04 00 	jarl	2600 <__kernel_initialize_cyclic+0x92>, lp
    2600:	44 fa       	add	4, lp
    2602:	6a 00       	jmp	[r10]
    2604:	2b 06 f4 2e 	mov	0x2ef4, r11
    2608:	00 00 
    260a:	3d 57 01 00 	ld.w	0[r29], r10
    260e:	c2 52       	shl	2, r10
    2610:	cb 51       	add	r11, r10
    2612:	2a 67 01 00 	ld.w	0[r10], r12
    2616:	2b 06 f4 75 	mov	0x6ff75f4, r11
    261a:	ff 06 
    261c:	3d 57 01 00 	ld.w	0[r29], r10
    2620:	c2 52       	shl	2, r10
    2622:	cb 51       	add	r11, r10
    2624:	6a 67 01 00 	st.w	r12, 0[r10]
    2628:	3d 57 01 00 	ld.w	0[r29], r10
    262c:	41 52       	add	1, r10
    262e:	7d 57 01 00 	st.w	r10, 0[r29]
    2632:	2a 06 dc 2e 	mov	0x2edc, r10
    2636:	00 00 
    2638:	2a 57 01 00 	ld.w	0[r10], r10
    263c:	0a 58       	mov	r10, r11
    263e:	3d 57 01 00 	ld.w	0[r29], r10
    2642:	ea 59       	cmp	r10, r11
    2644:	8b ad       	bh	2594 <__kernel_initialize_cyclic+0x26>
    2646:	1d 18       	mov	r29, sp
    2648:	23 ff 09 00 	ld.w	8[sp], lp
    264c:	23 ef 05 00 	ld.w	4[sp], r29
    2650:	4c 1a       	add	12, sp
    2652:	7f 00       	jmp	[lp]

00002654 <_sta_cyc>:
    2654:	03 1e e8 ff 	addi	-24, sp, sp
    2658:	63 ff 15 00 	st.w	lp, 20[sp]
    265c:	63 ef 11 00 	st.w	r29, 16[sp]
    2660:	03 e8       	mov	sp, r29
    2662:	7d 37 01 00 	st.w	r6, 0[r29]
    2666:	3d 57 01 00 	ld.w	0[r29], r10
    266a:	5f 52       	add	-1, r10
    266c:	7d 57 09 00 	st.w	r10, 8[r29]
    2670:	2a 06 5a 25 	mov	0x255a, r10
    2674:	00 00 
    2676:	80 ff 04 00 	jarl	267a <_sta_cyc+0x26>, lp
    267a:	44 fa       	add	4, lp
    267c:	6a 00       	jmp	[r10]
    267e:	60 52       	cmp	0, r10
    2680:	aa 0d       	bne	2694 <_sta_cyc+0x40>
    2682:	2a 06 5a 25 	mov	0x255a, r10
    2686:	00 00 
    2688:	80 ff 04 00 	jarl	268c <_sta_cyc+0x38>, lp
    268c:	44 fa       	add	4, lp
    268e:	6a 00       	jmp	[r10]
    2690:	60 52       	cmp	0, r10
    2692:	f2 05       	be	26a0 <_sta_cyc+0x4c>
    2694:	20 56 e7 ff 	movea	-25, r0, r10
    2698:	7d 57 0d 00 	st.w	r10, 12[r29]
    269c:	80 07 f6 00 	jr	2792 <_sta_cyc+0x13e>
    26a0:	3d 57 01 00 	ld.w	0[r29], r10
    26a4:	60 52       	cmp	0, r10
    26a6:	a7 0d       	ble	26ba <_sta_cyc+0x66>
    26a8:	2a 06 dc 2e 	mov	0x2edc, r10
    26ac:	00 00 
    26ae:	2a 57 01 00 	ld.w	0[r10], r10
    26b2:	3d 5f 01 00 	ld.w	0[r29], r11
    26b6:	ea 59       	cmp	r10, r11
    26b8:	e7 05       	ble	26c4 <_sta_cyc+0x70>
    26ba:	20 56 ee ff 	movea	-18, r0, r10
    26be:	7d 57 0d 00 	st.w	r10, 12[r29]
    26c2:	85 6d       	br	2792 <_sta_cyc+0x13e>
    26c4:	e0 07 60 01 	di	
    26c8:	3d 57 09 00 	ld.w	8[r29], r10
    26cc:	01 5a       	mov	1, r11
    26ce:	ea 5f c0 00 	shl	r10, r11
    26d2:	2a 06 ac 83 	mov	0x6ff83ac, r10
    26d6:	ff 06 
    26d8:	2a 57 01 00 	ld.w	0[r10], r10
    26dc:	4b 51       	and	r11, r10
    26de:	60 52       	cmp	0, r10
    26e0:	a2 15       	be	2704 <_sta_cyc+0xb0>
    26e2:	2a 06 e0 2e 	mov	0x2ee0, r10
    26e6:	00 00 
    26e8:	2a 5f 01 00 	ld.w	0[r10], r11
    26ec:	3d 57 09 00 	ld.w	8[r29], r10
    26f0:	cb 51       	add	r11, r10
    26f2:	0a 30       	mov	r10, r6
    26f4:	2a 06 34 2c 	mov	0x2c34, r10
    26f8:	00 00 
    26fa:	80 ff 04 00 	jarl	26fe <_sta_cyc+0xaa>, lp
    26fe:	44 fa       	add	4, lp
    2700:	6a 00       	jmp	[r10]
    2702:	95 15       	br	2724 <_sta_cyc+0xd0>
    2704:	3d 57 09 00 	ld.w	8[r29], r10
    2708:	01 5a       	mov	1, r11
    270a:	ea 5f c0 00 	shl	r10, r11
    270e:	2a 06 ac 83 	mov	0x6ff83ac, r10
    2712:	ff 06 
    2714:	2a 57 01 00 	ld.w	0[r10], r10
    2718:	0a 59       	or	r10, r11
    271a:	2a 06 ac 83 	mov	0x6ff83ac, r10
    271e:	ff 06 
    2720:	6a 5f 01 00 	st.w	r11, 0[r10]
    2724:	2b 06 f4 2e 	mov	0x2ef4, r11
    2728:	00 00 
    272a:	3d 57 09 00 	ld.w	8[r29], r10
    272e:	c2 52       	shl	2, r10
    2730:	cb 51       	add	r11, r10
    2732:	2a 5f 01 00 	ld.w	0[r10], r11
    2736:	2a 06 0c 84 	mov	0x6ff840c, r10
    273a:	ff 06 
    273c:	2a 57 01 00 	ld.w	0[r10], r10
    2740:	cb 51       	add	r11, r10
    2742:	7d 57 05 00 	st.w	r10, 4[r29]
    2746:	2a 06 e0 2e 	mov	0x2ee0, r10
    274a:	00 00 
    274c:	2a 5f 01 00 	ld.w	0[r10], r11
    2750:	3d 57 09 00 	ld.w	8[r29], r10
    2754:	cb 51       	add	r11, r10
    2756:	0a 30       	mov	r10, r6
    2758:	3d 3f 05 00 	ld.w	4[r29], r7
    275c:	28 06 94 28 	mov	0x2894, r8
    2760:	00 00 
    2762:	3d 4f 09 00 	ld.w	8[r29], r9
    2766:	2a 06 28 2b 	mov	0x2b28, r10
    276a:	00 00 
    276c:	80 ff 04 00 	jarl	2770 <_sta_cyc+0x11c>, lp
    2770:	44 fa       	add	4, lp
    2772:	6a 00       	jmp	[r10]
    2774:	2b 06 f4 75 	mov	0x6ff75f4, r11
    2778:	ff 06 
    277a:	3d 57 09 00 	ld.w	8[r29], r10
    277e:	c2 52       	shl	2, r10
    2780:	cb 51       	add	r11, r10
    2782:	3d 5f 05 00 	ld.w	4[r29], r11
    2786:	6a 5f 01 00 	st.w	r11, 0[r10]
    278a:	7d 07 0d 00 	st.w	r0, 12[r29]
    278e:	e0 87 60 01 	ei	
    2792:	3d 57 0d 00 	ld.w	12[r29], r10
    2796:	1d 18       	mov	r29, sp
    2798:	23 ff 15 00 	ld.w	20[sp], lp
    279c:	23 ef 11 00 	ld.w	16[sp], r29
    27a0:	03 1e 18 00 	addi	24, sp, sp
    27a4:	7f 00       	jmp	[lp]

000027a6 <_stp_cyc>:
    27a6:	03 1e ec ff 	addi	-20, sp, sp
    27aa:	63 ff 11 00 	st.w	lp, 16[sp]
    27ae:	63 ef 0d 00 	st.w	r29, 12[sp]
    27b2:	03 e8       	mov	sp, r29
    27b4:	7d 37 01 00 	st.w	r6, 0[r29]
    27b8:	3d 57 01 00 	ld.w	0[r29], r10
    27bc:	5f 52       	add	-1, r10
    27be:	7d 57 05 00 	st.w	r10, 4[r29]
    27c2:	2a 06 5a 25 	mov	0x255a, r10
    27c6:	00 00 
    27c8:	80 ff 04 00 	jarl	27cc <_stp_cyc+0x26>, lp
    27cc:	44 fa       	add	4, lp
    27ce:	6a 00       	jmp	[r10]
    27d0:	60 52       	cmp	0, r10
    27d2:	aa 0d       	bne	27e6 <_stp_cyc+0x40>
    27d4:	2a 06 5a 25 	mov	0x255a, r10
    27d8:	00 00 
    27da:	80 ff 04 00 	jarl	27de <_stp_cyc+0x38>, lp
    27de:	44 fa       	add	4, lp
    27e0:	6a 00       	jmp	[r10]
    27e2:	60 52       	cmp	0, r10
    27e4:	e2 05       	be	27f0 <_stp_cyc+0x4a>
    27e6:	20 56 e7 ff 	movea	-25, r0, r10
    27ea:	7d 57 09 00 	st.w	r10, 8[r29]
    27ee:	95 4d       	br	2880 <_stp_cyc+0xda>
    27f0:	3d 57 01 00 	ld.w	0[r29], r10
    27f4:	60 52       	cmp	0, r10
    27f6:	a7 0d       	ble	280a <_stp_cyc+0x64>
    27f8:	2a 06 dc 2e 	mov	0x2edc, r10
    27fc:	00 00 
    27fe:	2a 57 01 00 	ld.w	0[r10], r10
    2802:	3d 5f 01 00 	ld.w	0[r29], r11
    2806:	ea 59       	cmp	r10, r11
    2808:	e7 05       	ble	2814 <_stp_cyc+0x6e>
    280a:	20 56 ee ff 	movea	-18, r0, r10
    280e:	7d 57 09 00 	st.w	r10, 8[r29]
    2812:	f5 35       	br	2880 <_stp_cyc+0xda>
    2814:	e0 07 60 01 	di	
    2818:	3d 57 05 00 	ld.w	4[r29], r10
    281c:	01 5a       	mov	1, r11
    281e:	ea 5f c0 00 	shl	r10, r11
    2822:	2a 06 ac 83 	mov	0x6ff83ac, r10
    2826:	ff 06 
    2828:	2a 57 01 00 	ld.w	0[r10], r10
    282c:	4b 51       	and	r11, r10
    282e:	60 52       	cmp	0, r10
    2830:	c2 25       	be	2878 <_stp_cyc+0xd2>
    2832:	3d 57 05 00 	ld.w	4[r29], r10
    2836:	01 5a       	mov	1, r11
    2838:	0b 60       	mov	r11, r12
    283a:	ea 67 c0 00 	shl	r10, r12
    283e:	0c 50       	mov	r12, r10
    2840:	2a 58       	not	r10, r11
    2842:	2a 06 ac 83 	mov	0x6ff83ac, r10
    2846:	ff 06 
    2848:	2a 57 01 00 	ld.w	0[r10], r10
    284c:	4a 59       	and	r10, r11
    284e:	2a 06 ac 83 	mov	0x6ff83ac, r10
    2852:	ff 06 
    2854:	6a 5f 01 00 	st.w	r11, 0[r10]
    2858:	2a 06 e0 2e 	mov	0x2ee0, r10
    285c:	00 00 
    285e:	2a 5f 01 00 	ld.w	0[r10], r11
    2862:	3d 57 05 00 	ld.w	4[r29], r10
    2866:	cb 51       	add	r11, r10
    2868:	0a 30       	mov	r10, r6
    286a:	2a 06 34 2c 	mov	0x2c34, r10
    286e:	00 00 
    2870:	80 ff 04 00 	jarl	2874 <_stp_cyc+0xce>, lp
    2874:	44 fa       	add	4, lp
    2876:	6a 00       	jmp	[r10]
    2878:	7d 07 09 00 	st.w	r0, 8[r29]
    287c:	e0 87 60 01 	ei	
    2880:	3d 57 09 00 	ld.w	8[r29], r10
    2884:	1d 18       	mov	r29, sp
    2886:	23 ff 11 00 	ld.w	16[sp], lp
    288a:	23 ef 0d 00 	ld.w	12[sp], r29
    288e:	03 1e 14 00 	addi	20, sp, sp
    2892:	7f 00       	jmp	[lp]

00002894 <__kernel_call_cychdr>:
    2894:	54 1a       	add	-12, sp
    2896:	63 ff 09 00 	st.w	lp, 8[sp]
    289a:	63 ef 05 00 	st.w	r29, 4[sp]
    289e:	03 e8       	mov	sp, r29
    28a0:	7d 37 01 00 	st.w	r6, 0[r29]
    28a4:	2b 06 f4 75 	mov	0x6ff75f4, r11
    28a8:	ff 06 
    28aa:	3d 57 01 00 	ld.w	0[r29], r10
    28ae:	c2 52       	shl	2, r10
    28b0:	cb 51       	add	r11, r10
    28b2:	2a 5f 01 00 	ld.w	0[r10], r11
    28b6:	2c 06 f0 2e 	mov	0x2ef0, r12
    28ba:	00 00 
    28bc:	3d 57 01 00 	ld.w	0[r29], r10
    28c0:	c2 52       	shl	2, r10
    28c2:	cc 51       	add	r12, r10
    28c4:	2a 57 01 00 	ld.w	0[r10], r10
    28c8:	0b 60       	mov	r11, r12
    28ca:	ca 61       	add	r10, r12
    28cc:	2b 06 f4 75 	mov	0x6ff75f4, r11
    28d0:	ff 06 
    28d2:	3d 57 01 00 	ld.w	0[r29], r10
    28d6:	c2 52       	shl	2, r10
    28d8:	cb 51       	add	r11, r10
    28da:	6a 67 01 00 	st.w	r12, 0[r10]
    28de:	3d 67 01 00 	ld.w	0[r29], r12
    28e2:	2b 06 f4 75 	mov	0x6ff75f4, r11
    28e6:	ff 06 
    28e8:	3d 57 01 00 	ld.w	0[r29], r10
    28ec:	c2 52       	shl	2, r10
    28ee:	cb 51       	add	r11, r10
    28f0:	2a 57 01 00 	ld.w	0[r10], r10
    28f4:	0c 30       	mov	r12, r6
    28f6:	0a 38       	mov	r10, r7
    28f8:	28 06 94 28 	mov	0x2894, r8
    28fc:	00 00 
    28fe:	3d 4f 01 00 	ld.w	0[r29], r9
    2902:	2a 06 28 2b 	mov	0x2b28, r10
    2906:	00 00 
    2908:	80 ff 04 00 	jarl	290c <__kernel_call_cychdr+0x78>, lp
    290c:	44 fa       	add	4, lp
    290e:	6a 00       	jmp	[r10]
    2910:	e0 87 60 01 	ei	
    2914:	2b 06 ec 2e 	mov	0x2eec, r11
    2918:	00 00 
    291a:	3d 57 01 00 	ld.w	0[r29], r10
    291e:	c2 52       	shl	2, r10
    2920:	cb 51       	add	r11, r10
    2922:	2a 57 01 00 	ld.w	0[r10], r10
    2926:	2c 06 e8 2e 	mov	0x2ee8, r12
    292a:	00 00 
    292c:	3d 5f 01 00 	ld.w	0[r29], r11
    2930:	c2 5a       	shl	2, r11
    2932:	cc 59       	add	r12, r11
    2934:	2b 5f 01 00 	ld.w	0[r11], r11
    2938:	0b 30       	mov	r11, r6
    293a:	80 ff 04 00 	jarl	293e <__kernel_call_cychdr+0xaa>, lp
    293e:	44 fa       	add	4, lp
    2940:	6a 00       	jmp	[r10]
    2942:	2a 06 5a 25 	mov	0x255a, r10
    2946:	00 00 
    2948:	80 ff 04 00 	jarl	294c <__kernel_call_cychdr+0xb8>, lp
    294c:	44 fa       	add	4, lp
    294e:	6a 00       	jmp	[r10]
    2950:	60 52       	cmp	0, r10
    2952:	ba 05       	bne	2958 <__kernel_call_cychdr+0xc4>
    2954:	e0 07 60 01 	di	
    2958:	1d 18       	mov	r29, sp
    295a:	23 ff 09 00 	ld.w	8[sp], lp
    295e:	23 ef 05 00 	ld.w	4[sp], r29
    2962:	4c 1a       	add	12, sp
    2964:	7f 00       	jmp	[lp]

00002966 <_queue_initialize>:
    2966:	54 1a       	add	-12, sp
    2968:	63 ef 09 00 	st.w	r29, 8[sp]
    296c:	03 e8       	mov	sp, r29
    296e:	7d 37 05 00 	st.w	r6, 4[r29]
    2972:	07 50       	mov	r7, r10
    2974:	5d 57 00 00 	st.b	r10, 0[r29]
    2978:	3d 57 05 00 	ld.w	4[r29], r10
    297c:	1d 5f 00 00 	ld.b	0[r29], r11
    2980:	4a 5f 01 00 	st.b	r11, 1[r10]
    2984:	3d 57 05 00 	ld.w	4[r29], r10
    2988:	aa 5f 01 00 	ld.bu	1[r10], r11
    298c:	3d 57 05 00 	ld.w	4[r29], r10
    2990:	4a 5f 00 00 	st.b	r11, 0[r10]
    2994:	1d 18       	mov	r29, sp
    2996:	23 ef 09 00 	ld.w	8[sp], r29
    299a:	4c 1a       	add	12, sp
    299c:	7f 00       	jmp	[lp]

0000299e <_queue_insert_prev>:
    299e:	50 1a       	add	-16, sp
    29a0:	63 ef 0d 00 	st.w	r29, 12[sp]
    29a4:	03 e8       	mov	sp, r29
    29a6:	7d 37 09 00 	st.w	r6, 8[r29]
    29aa:	07 58       	mov	r7, r11
    29ac:	08 50       	mov	r8, r10
    29ae:	5d 5f 04 00 	st.b	r11, 4[r29]
    29b2:	5d 57 00 00 	st.b	r10, 0[r29]
    29b6:	9d 57 01 00 	ld.bu	0[r29], r10
    29ba:	ca 51       	add	r10, r10
    29bc:	0a 58       	mov	r10, r11
    29be:	3d 57 09 00 	ld.w	8[r29], r10
    29c2:	ca 59       	add	r10, r11
    29c4:	9d 57 05 00 	ld.b	2680064[r29], r0
    29c8:	ca 51       	add	r10, r10
    29ca:	0a 60       	mov	r10, r12
    29cc:	3d 57 09 00 	ld.w	8[r29], r10
    29d0:	cc 51       	add	r12, r10
    29d2:	aa 57 01 00 	ld.bu	1[r10], r10
    29d6:	4b 57 01 00 	st.b	r10, 1[r11]
    29da:	9d 57 01 00 	ld.bu	0[r29], r10
    29de:	ca 51       	add	r10, r10
    29e0:	0a 58       	mov	r10, r11
    29e2:	3d 57 09 00 	ld.w	8[r29], r10
    29e6:	cb 51       	add	r11, r10
    29e8:	1d 5f 04 00 	ld.b	4[r29], r11
    29ec:	4a 5f 00 00 	st.b	r11, 0[r10]
    29f0:	9d 57 05 00 	ld.b	2680064[r29], r0
    29f4:	ca 51       	add	r10, r10
    29f6:	0a 58       	mov	r10, r11
    29f8:	3d 57 09 00 	ld.w	8[r29], r10
    29fc:	cb 51       	add	r11, r10
    29fe:	aa 57 01 00 	ld.bu	1[r10], r10
    2a02:	ca 51       	add	r10, r10
    2a04:	0a 58       	mov	r10, r11
    2a06:	3d 57 09 00 	ld.w	8[r29], r10
    2a0a:	cb 51       	add	r11, r10
    2a0c:	1d 5f 00 00 	ld.b	0[r29], r11
    2a10:	4a 5f 00 00 	st.b	r11, 0[r10]
    2a14:	9d 57 05 00 	ld.b	2680064[r29], r0
    2a18:	ca 51       	add	r10, r10
    2a1a:	0a 58       	mov	r10, r11
    2a1c:	3d 57 09 00 	ld.w	8[r29], r10
    2a20:	cb 51       	add	r11, r10
    2a22:	1d 5f 00 00 	ld.b	0[r29], r11
    2a26:	4a 5f 01 00 	st.b	r11, 1[r10]
    2a2a:	1d 18       	mov	r29, sp
    2a2c:	23 ef 0d 00 	ld.w	12[sp], r29
    2a30:	03 1e 10 00 	addi	16, sp, sp
    2a34:	7f 00       	jmp	[lp]

00002a36 <_queue_delete_next>:
    2a36:	54 1a       	add	-12, sp
    2a38:	63 ef 09 00 	st.w	r29, 8[sp]
    2a3c:	03 e8       	mov	sp, r29
    2a3e:	7d 37 05 00 	st.w	r6, 4[r29]
    2a42:	07 50       	mov	r7, r10
    2a44:	5d 57 00 00 	st.b	r10, 0[r29]
    2a48:	9d 57 01 00 	ld.bu	0[r29], r10
    2a4c:	ca 51       	add	r10, r10
    2a4e:	0a 58       	mov	r10, r11
    2a50:	3d 57 05 00 	ld.w	4[r29], r10
    2a54:	cb 51       	add	r11, r10
    2a56:	8a 57 01 00 	ld.bu	0[r10], r10
    2a5a:	ca 51       	add	r10, r10
    2a5c:	0a 58       	mov	r10, r11
    2a5e:	3d 57 05 00 	ld.w	4[r29], r10
    2a62:	ca 59       	add	r10, r11
    2a64:	9d 57 01 00 	ld.bu	0[r29], r10
    2a68:	ca 51       	add	r10, r10
    2a6a:	0a 60       	mov	r10, r12
    2a6c:	3d 57 05 00 	ld.w	4[r29], r10
    2a70:	cc 51       	add	r12, r10
    2a72:	aa 57 01 00 	ld.bu	1[r10], r10
    2a76:	4b 57 01 00 	st.b	r10, 1[r11]
    2a7a:	9d 57 01 00 	ld.bu	0[r29], r10
    2a7e:	ca 51       	add	r10, r10
    2a80:	0a 58       	mov	r10, r11
    2a82:	3d 57 05 00 	ld.w	4[r29], r10
    2a86:	cb 51       	add	r11, r10
    2a88:	aa 57 01 00 	ld.bu	1[r10], r10
    2a8c:	ca 51       	add	r10, r10
    2a8e:	0a 58       	mov	r10, r11
    2a90:	3d 57 05 00 	ld.w	4[r29], r10
    2a94:	ca 59       	add	r10, r11
    2a96:	9d 57 01 00 	ld.bu	0[r29], r10
    2a9a:	ca 51       	add	r10, r10
    2a9c:	0a 60       	mov	r10, r12
    2a9e:	3d 57 05 00 	ld.w	4[r29], r10
    2aa2:	cc 51       	add	r12, r10
    2aa4:	8a 57 01 00 	ld.bu	0[r10], r10
    2aa8:	4b 57 00 00 	st.b	r10, 0[r11]
    2aac:	9d 57 01 00 	ld.bu	0[r29], r10
    2ab0:	ca 51       	add	r10, r10
    2ab2:	0a 58       	mov	r10, r11
    2ab4:	3d 57 05 00 	ld.w	4[r29], r10
    2ab8:	cb 51       	add	r11, r10
    2aba:	8a 57 01 00 	ld.bu	0[r10], r10
    2abe:	1d 18       	mov	r29, sp
    2ac0:	23 ef 09 00 	ld.w	8[sp], r29
    2ac4:	4c 1a       	add	12, sp
    2ac6:	7f 00       	jmp	[lp]

00002ac8 <__kernel_initialize_time_event>:
    2ac8:	58 1a       	add	-8, sp
    2aca:	63 ff 05 00 	st.w	lp, 4[sp]
    2ace:	63 ef 01 00 	st.w	r29, 0[sp]
    2ad2:	03 e8       	mov	sp, r29
    2ad4:	2a 06 0c 84 	mov	0x6ff840c, r10
    2ad8:	ff 06 
    2ada:	6a 07 01 00 	st.w	r0, 0[r10]
    2ade:	2a 06 08 84 	mov	0x6ff8408, r10
    2ae2:	ff 06 
    2ae4:	6a 07 01 00 	st.w	r0, 0[r10]
    2ae8:	2a 06 10 2f 	mov	0x2f10, r10
    2aec:	00 00 
    2aee:	2a 57 01 00 	ld.w	0[r10], r10
    2af2:	ca 51       	add	r10, r10
    2af4:	2b 06 f8 75 	mov	0x6ff75f8, r11
    2af8:	ff 06 
    2afa:	ca 59       	add	r10, r11
    2afc:	2a 06 10 2f 	mov	0x2f10, r10
    2b00:	00 00 
    2b02:	2a 57 01 00 	ld.w	0[r10], r10
    2b06:	8a 00       	zxb	r10
    2b08:	0b 30       	mov	r11, r6
    2b0a:	0a 38       	mov	r10, r7
    2b0c:	2a 06 66 29 	mov	0x2966, r10
    2b10:	00 00 
    2b12:	80 ff 04 00 	jarl	2b16 <__kernel_initialize_time_event+0x4e>, lp
    2b16:	44 fa       	add	4, lp
    2b18:	6a 00       	jmp	[r10]
    2b1a:	1d 18       	mov	r29, sp
    2b1c:	23 ff 05 00 	ld.w	4[sp], lp
    2b20:	23 ef 01 00 	ld.w	0[sp], r29
    2b24:	48 1a       	add	8, sp
    2b26:	7f 00       	jmp	[lp]

00002b28 <__kernel_time_event_enqueue>:
    2b28:	03 1e e4 ff 	addi	-28, sp, sp
    2b2c:	63 ff 19 00 	st.w	lp, 24[sp]
    2b30:	63 ef 15 00 	st.w	r29, 20[sp]
    2b34:	03 e8       	mov	sp, r29
    2b36:	7d 37 0d 00 	st.w	r6, 12[r29]
    2b3a:	7d 3f 09 00 	st.w	r7, 8[r29]
    2b3e:	7d 47 05 00 	st.w	r8, 4[r29]
    2b42:	7d 4f 01 00 	st.w	r9, 0[r29]
    2b46:	2a 06 10 2f 	mov	0x2f10, r10
    2b4a:	00 00 
    2b4c:	2a 57 01 00 	ld.w	0[r10], r10
    2b50:	2b 06 f8 75 	mov	0x6ff75f8, r11
    2b54:	ff 06 
    2b56:	ca 51       	add	r10, r10
    2b58:	cb 51       	add	r11, r10
    2b5a:	0a 57 00 00 	ld.b	0[r10], r10
    2b5e:	5d 57 13 00 	st.b	r10, 19[r29]
    2b62:	c5 0d       	br	2b7a <__kernel_time_event_enqueue+0x52>
    2b64:	bd 57 13 00 	ld.bu	19[r29], r10
    2b68:	2b 06 f8 75 	mov	0x6ff75f8, r11
    2b6c:	ff 06 
    2b6e:	ca 51       	add	r10, r10
    2b70:	cb 51       	add	r11, r10
    2b72:	0a 57 00 00 	ld.b	0[r10], r10
    2b76:	5d 57 13 00 	st.b	r10, 19[r29]
    2b7a:	2a 06 10 2f 	mov	0x2f10, r10
    2b7e:	00 00 
    2b80:	2a 57 01 00 	ld.w	0[r10], r10
    2b84:	8a 00       	zxb	r10
    2b86:	bd 5f 13 00 	ld.bu	19[r29], r11
    2b8a:	ea 59       	cmp	r10, r11
    2b8c:	a2 1d       	be	2bc0 <__kernel_time_event_enqueue+0x98>
    2b8e:	bd 57 13 00 	ld.bu	19[r29], r10
    2b92:	2b 06 a0 76 	mov	0x6ff76a0, r11
    2b96:	ff 06 
    2b98:	c2 52       	shl	2, r10
    2b9a:	cb 51       	add	r11, r10
    2b9c:	2a 5f 01 00 	ld.w	0[r10], r11
    2ba0:	2a 06 08 84 	mov	0x6ff8408, r10
    2ba4:	ff 06 
    2ba6:	2a 57 01 00 	ld.w	0[r10], r10
    2baa:	aa 59       	sub	r10, r11
    2bac:	2a 06 08 84 	mov	0x6ff8408, r10
    2bb0:	ff 06 
    2bb2:	2a 57 01 00 	ld.w	0[r10], r10
    2bb6:	3d 67 09 00 	ld.w	8[r29], r12
    2bba:	8c 51       	subr	r12, r10
    2bbc:	ea 59       	cmp	r10, r11
    2bbe:	b3 d5       	bnh	2b64 <__kernel_time_event_enqueue+0x3c>
    2bc0:	bd 57 13 00 	ld.bu	19[r29], r10
    2bc4:	3d 5f 0d 00 	ld.w	12[r29], r11
    2bc8:	8b 00       	zxb	r11
    2bca:	26 06 f8 75 	mov	0x6ff75f8, r6
    2bce:	ff 06 
    2bd0:	0a 38       	mov	r10, r7
    2bd2:	0b 40       	mov	r11, r8
    2bd4:	2a 06 9e 29 	mov	0x299e, r10
    2bd8:	00 00 
    2bda:	80 ff 04 00 	jarl	2bde <__kernel_time_event_enqueue+0xb6>, lp
    2bde:	44 fa       	add	4, lp
    2be0:	6a 00       	jmp	[r10]
    2be2:	2b 06 88 76 	mov	0x6ff7688, r11
    2be6:	ff 06 
    2be8:	3d 57 0d 00 	ld.w	12[r29], r10
    2bec:	c2 52       	shl	2, r10
    2bee:	cb 51       	add	r11, r10
    2bf0:	3d 5f 05 00 	ld.w	4[r29], r11
    2bf4:	6a 5f 01 00 	st.w	r11, 0[r10]
    2bf8:	2b 06 94 76 	mov	0x6ff7694, r11
    2bfc:	ff 06 
    2bfe:	3d 57 0d 00 	ld.w	12[r29], r10
    2c02:	c2 52       	shl	2, r10
    2c04:	cb 51       	add	r11, r10
    2c06:	3d 5f 01 00 	ld.w	0[r29], r11
    2c0a:	6a 5f 01 00 	st.w	r11, 0[r10]
    2c0e:	2b 06 a0 76 	mov	0x6ff76a0, r11
    2c12:	ff 06 
    2c14:	3d 57 0d 00 	ld.w	12[r29], r10
    2c18:	c2 52       	shl	2, r10
    2c1a:	cb 51       	add	r11, r10
    2c1c:	3d 5f 09 00 	ld.w	8[r29], r11
    2c20:	6a 5f 01 00 	st.w	r11, 0[r10]
    2c24:	1d 18       	mov	r29, sp
    2c26:	23 ff 19 00 	ld.w	24[sp], lp
    2c2a:	23 ef 15 00 	ld.w	20[sp], r29
    2c2e:	03 1e 1c 00 	addi	28, sp, sp
    2c32:	7f 00       	jmp	[lp]

00002c34 <__kernel_time_event_dequeue>:
    2c34:	54 1a       	add	-12, sp
    2c36:	63 ff 09 00 	st.w	lp, 8[sp]
    2c3a:	63 ef 05 00 	st.w	r29, 4[sp]
    2c3e:	03 e8       	mov	sp, r29
    2c40:	7d 37 01 00 	st.w	r6, 0[r29]
    2c44:	3d 57 01 00 	ld.w	0[r29], r10
    2c48:	8a 00       	zxb	r10
    2c4a:	26 06 f8 75 	mov	0x6ff75f8, r6
    2c4e:	ff 06 
    2c50:	0a 38       	mov	r10, r7
    2c52:	2a 06 36 2a 	mov	0x2a36, r10
    2c56:	00 00 
    2c58:	80 ff 04 00 	jarl	2c5c <__kernel_time_event_dequeue+0x28>, lp
    2c5c:	44 fa       	add	4, lp
    2c5e:	6a 00       	jmp	[r10]
    2c60:	1d 18       	mov	r29, sp
    2c62:	23 ff 09 00 	ld.w	8[sp], lp
    2c66:	23 ef 05 00 	ld.w	4[sp], r29
    2c6a:	4c 1a       	add	12, sp
    2c6c:	7f 00       	jmp	[lp]

00002c6e <__kernel_signal_time>:
    2c6e:	54 1a       	add	-12, sp
    2c70:	63 ff 09 00 	st.w	lp, 8[sp]
    2c74:	63 ef 05 00 	st.w	r29, 4[sp]
    2c78:	03 e8       	mov	sp, r29
    2c7a:	2a 06 10 2f 	mov	0x2f10, r10
    2c7e:	00 00 
    2c80:	2a 57 01 00 	ld.w	0[r10], r10
    2c84:	2b 06 f8 75 	mov	0x6ff75f8, r11
    2c88:	ff 06 
    2c8a:	ca 51       	add	r10, r10
    2c8c:	cb 51       	add	r11, r10
    2c8e:	0a 57 00 00 	ld.b	0[r10], r10
    2c92:	5d 57 03 00 	st.b	r10, 3[r29]
    2c96:	2a 06 0c 84 	mov	0x6ff840c, r10
    2c9a:	ff 06 
    2c9c:	2a 57 01 00 	ld.w	0[r10], r10
    2ca0:	0a 5e 01 00 	addi	1, r10, r11
    2ca4:	2a 06 0c 84 	mov	0x6ff840c, r10
    2ca8:	ff 06 
    2caa:	6a 5f 01 00 	st.w	r11, 0[r10]
    2cae:	c5 35       	br	2d16 <__kernel_signal_time+0xa8>
    2cb0:	bd 57 03 00 	ld.bu	3[r29], r10
    2cb4:	26 06 f8 75 	mov	0x6ff75f8, r6
    2cb8:	ff 06 
    2cba:	0a 38       	mov	r10, r7
    2cbc:	2a 06 36 2a 	mov	0x2a36, r10
    2cc0:	00 00 
    2cc2:	80 ff 04 00 	jarl	2cc6 <__kernel_signal_time+0x58>, lp
    2cc6:	44 fa       	add	4, lp
    2cc8:	6a 00       	jmp	[r10]
    2cca:	1d 57 03 00 	ld.b	3[r29], r10
    2cce:	5d 57 02 00 	st.b	r10, 2[r29]
    2cd2:	bd 57 03 00 	ld.bu	3[r29], r10
    2cd6:	2b 06 f8 75 	mov	0x6ff75f8, r11
    2cda:	ff 06 
    2cdc:	ca 51       	add	r10, r10
    2cde:	cb 51       	add	r11, r10
    2ce0:	0a 57 00 00 	ld.b	0[r10], r10
    2ce4:	5d 57 03 00 	st.b	r10, 3[r29]
    2ce8:	9d 57 03 00 	ld.bu	2[r29], r10
    2cec:	2b 06 88 76 	mov	0x6ff7688, r11
    2cf0:	ff 06 
    2cf2:	c2 52       	shl	2, r10
    2cf4:	cb 51       	add	r11, r10
    2cf6:	2a 57 01 00 	ld.w	0[r10], r10
    2cfa:	9d 5f 03 00 	ld.bu	2[r29], r11
    2cfe:	2c 06 94 76 	mov	0x6ff7694, r12
    2d02:	ff 06 
    2d04:	c2 5a       	shl	2, r11
    2d06:	cc 59       	add	r12, r11
    2d08:	2b 5f 01 00 	ld.w	0[r11], r11
    2d0c:	0b 30       	mov	r11, r6
    2d0e:	80 ff 04 00 	jarl	2d12 <__kernel_signal_time+0xa4>, lp
    2d12:	44 fa       	add	4, lp
    2d14:	6a 00       	jmp	[r10]
    2d16:	2a 06 10 2f 	mov	0x2f10, r10
    2d1a:	00 00 
    2d1c:	2a 57 01 00 	ld.w	0[r10], r10
    2d20:	8a 00       	zxb	r10
    2d22:	bd 5f 03 00 	ld.bu	3[r29], r11
    2d26:	ea 59       	cmp	r10, r11
    2d28:	d2 1d       	be	2d62 <__kernel_signal_time+0xf4>
    2d2a:	bd 57 03 00 	ld.bu	3[r29], r10
    2d2e:	2b 06 a0 76 	mov	0x6ff76a0, r11
    2d32:	ff 06 
    2d34:	c2 52       	shl	2, r10
    2d36:	cb 51       	add	r11, r10
    2d38:	2a 5f 01 00 	ld.w	0[r10], r11
    2d3c:	2a 06 08 84 	mov	0x6ff8408, r10
    2d40:	ff 06 
    2d42:	2a 57 01 00 	ld.w	0[r10], r10
    2d46:	aa 59       	sub	r10, r11
    2d48:	2a 06 0c 84 	mov	0x6ff840c, r10
    2d4c:	ff 06 
    2d4e:	2a 67 01 00 	ld.w	0[r10], r12
    2d52:	2a 06 08 84 	mov	0x6ff8408, r10
    2d56:	ff 06 
    2d58:	2a 57 01 00 	ld.w	0[r10], r10
    2d5c:	8c 51       	subr	r12, r10
    2d5e:	ea 59       	cmp	r10, r11
    2d60:	81 ad       	bl	2cb0 <__kernel_signal_time+0x42>
    2d62:	2a 06 0c 84 	mov	0x6ff840c, r10
    2d66:	ff 06 
    2d68:	2a 5f 01 00 	ld.w	0[r10], r11
    2d6c:	2a 06 08 84 	mov	0x6ff8408, r10
    2d70:	ff 06 
    2d72:	6a 5f 01 00 	st.w	r11, 0[r10]
    2d76:	1d 18       	mov	r29, sp
    2d78:	23 ff 09 00 	ld.w	8[sp], lp
    2d7c:	23 ef 05 00 	ld.w	4[sp], r29
    2d80:	4c 1a       	add	12, sp
    2d82:	7f 00       	jmp	[lp]

00002d84 <_setjmp>:
    2d84:	66 0f 01 00 	st.w	r1, 0[r6]
    2d88:	66 1f 05 00 	st.w	sp, 4[r6]
    2d8c:	66 27 09 00 	st.w	gp, 8[r6]
    2d90:	66 a7 0d 00 	st.w	r20, 12[r6]
    2d94:	66 af 11 00 	st.w	r21, 16[r6]
    2d98:	66 b7 15 00 	st.w	r22, 20[r6]
    2d9c:	66 bf 19 00 	st.w	r23, 24[r6]
    2da0:	66 c7 1d 00 	st.w	r24, 28[r6]
    2da4:	66 cf 21 00 	st.w	r25, 32[r6]
    2da8:	66 d7 25 00 	st.w	r26, 36[r6]
    2dac:	66 df 29 00 	st.w	r27, 40[r6]
    2db0:	66 e7 2d 00 	st.w	r28, 44[r6]
    2db4:	66 ef 31 00 	st.w	r29, 48[r6]
    2db8:	66 f7 35 00 	st.w	ep, 52[r6]
    2dbc:	66 ff 39 00 	st.w	lp, 56[r6]
    2dc0:	00 50       	mov	r0, r10
    2dc2:	7f 00       	jmp	[lp]

00002dc4 <_longjmp>:
    2dc4:	26 0f 01 00 	ld.w	0[r6], r1
    2dc8:	26 1f 05 00 	ld.w	4[r6], sp
    2dcc:	26 27 09 00 	ld.w	8[r6], gp
    2dd0:	26 a7 0d 00 	ld.w	12[r6], r20
    2dd4:	26 af 11 00 	ld.w	16[r6], r21
    2dd8:	26 b7 15 00 	ld.w	20[r6], r22
    2ddc:	26 bf 19 00 	ld.w	24[r6], r23
    2de0:	26 c7 1d 00 	ld.w	28[r6], r24
    2de4:	26 cf 21 00 	ld.w	32[r6], r25
    2de8:	26 d7 25 00 	ld.w	36[r6], r26
    2dec:	26 df 29 00 	ld.w	40[r6], r27
    2df0:	26 e7 2d 00 	ld.w	44[r6], r28
    2df4:	26 ef 31 00 	ld.w	48[r6], r29
    2df8:	26 f7 35 00 	ld.w	52[r6], ep
    2dfc:	26 ff 39 00 	ld.w	56[r6], lp
    2e00:	e7 01       	cmp	r7, r0
    2e02:	aa 05       	bne	2e06 <_longjmp+0x42>
    2e04:	01 3a       	mov	1, r7
    2e06:	07 50       	mov	r7, r10
    2e08:	7f 00       	jmp	[lp]
